
./init/kernel.elf：     文件格式 elf32-i386


Disassembly of section .text:

00005000 <_start>:
    5000:	b8 10 00 00 00       	mov    $0x10,%eax
    5005:	8e d8                	mov    %eax,%ds
    5007:	8e c0                	mov    %eax,%es
    5009:	8e e0                	mov    %eax,%fs
    500b:	8e e8                	mov    %eax,%gs
    500d:	8e d0                	mov    %eax,%ss
    500f:	e8 1e 00 00 00       	call   5032 <setup_paging>
    5014:	31 c0                	xor    %eax,%eax
    5016:	0f 20 d8             	mov    %cr3,%eax
    5019:	0f 20 c0             	mov    %cr0,%eax
    501c:	0d 00 00 00 80       	or     $0x80000000,%eax
    5021:	0f 22 c0             	mov    %eax,%cr0
    5024:	bc 28 6c 00 00       	mov    $0x6c28,%esp
    5029:	89 e5                	mov    %esp,%ebp
    502b:	b8 4f 5e 00 00       	mov    $0x5e4f,%eax
    5030:	ff e0                	jmp    *%eax

00005032 <setup_paging>:
    5032:	b9 00 14 00 00       	mov    $0x1400,%ecx
    5037:	31 c0                	xor    %eax,%eax
    5039:	31 ff                	xor    %edi,%edi
    503b:	fc                   	cld    
    503c:	f3 ab                	rep stos %eax,%es:(%edi)
    503e:	c7 05 00 00 00 00 07 	movl   $0x1007,0x0
    5045:	10 00 00 
    5048:	c7 05 04 00 00 00 07 	movl   $0x2007,0x4
    504f:	20 00 00 
    5052:	c7 05 08 00 00 00 07 	movl   $0x3007,0x8
    5059:	30 00 00 
    505c:	c7 05 0c 00 00 00 07 	movl   $0x4007,0xc
    5063:	40 00 00 
    5066:	b8 07 f0 ff 00       	mov    $0xfff007,%eax
    506b:	bf fc 4f 00 00       	mov    $0x4ffc,%edi
    5070:	fd                   	std    

00005071 <abcd>:
    5071:	ab                   	stos   %eax,%es:(%edi)
    5072:	2d 00 10 00 00       	sub    $0x1000,%eax
    5077:	7d f8                	jge    5071 <abcd>
    5079:	c3                   	ret    

0000507a <load_gdtr>:
    507a:	8b 44 24 04          	mov    0x4(%esp),%eax
    507e:	0f 01 10             	lgdtl  (%eax)
    5081:	66 b8 10 00          	mov    $0x10,%ax
    5085:	8e d8                	mov    %eax,%ds
    5087:	8e c0                	mov    %eax,%es
    5089:	8e e0                	mov    %eax,%fs
    508b:	8e e8                	mov    %eax,%gs
    508d:	8e d0                	mov    %eax,%ss
    508f:	ea 96 50 00 00 08 00 	ljmp   $0x8,$0x5096

00005096 <load_gdtr.flush>:
    5096:	c3                   	ret    

00005097 <load_idtr>:
    5097:	8b 44 24 04          	mov    0x4(%esp),%eax
    509b:	0f 01 18             	lidtl  (%eax)
    509e:	c3                   	ret    

0000509f <isr0>:
    509f:	fa                   	cli    
    50a0:	6a 00                	push   $0x0
    50a2:	6a 00                	push   $0x0
    50a4:	e9 fc 00 00 00       	jmp    51a5 <isr_common_stub>

000050a9 <isr1>:
    50a9:	fa                   	cli    
    50aa:	6a 00                	push   $0x0
    50ac:	6a 01                	push   $0x1
    50ae:	e9 f2 00 00 00       	jmp    51a5 <isr_common_stub>

000050b3 <isr2>:
    50b3:	fa                   	cli    
    50b4:	6a 00                	push   $0x0
    50b6:	6a 02                	push   $0x2
    50b8:	e9 e8 00 00 00       	jmp    51a5 <isr_common_stub>

000050bd <isr3>:
    50bd:	fa                   	cli    
    50be:	6a 00                	push   $0x0
    50c0:	6a 03                	push   $0x3
    50c2:	e9 de 00 00 00       	jmp    51a5 <isr_common_stub>

000050c7 <isr4>:
    50c7:	fa                   	cli    
    50c8:	6a 00                	push   $0x0
    50ca:	6a 04                	push   $0x4
    50cc:	e9 d4 00 00 00       	jmp    51a5 <isr_common_stub>

000050d1 <isr5>:
    50d1:	fa                   	cli    
    50d2:	6a 00                	push   $0x0
    50d4:	6a 05                	push   $0x5
    50d6:	e9 ca 00 00 00       	jmp    51a5 <isr_common_stub>

000050db <isr6>:
    50db:	fa                   	cli    
    50dc:	6a 00                	push   $0x0
    50de:	6a 06                	push   $0x6
    50e0:	e9 c0 00 00 00       	jmp    51a5 <isr_common_stub>

000050e5 <isr7>:
    50e5:	fa                   	cli    
    50e6:	6a 00                	push   $0x0
    50e8:	6a 07                	push   $0x7
    50ea:	e9 b6 00 00 00       	jmp    51a5 <isr_common_stub>

000050ef <isr8>:
    50ef:	fa                   	cli    
    50f0:	6a 08                	push   $0x8
    50f2:	e9 ae 00 00 00       	jmp    51a5 <isr_common_stub>

000050f7 <isr9>:
    50f7:	fa                   	cli    
    50f8:	6a 00                	push   $0x0
    50fa:	6a 09                	push   $0x9
    50fc:	e9 a4 00 00 00       	jmp    51a5 <isr_common_stub>

00005101 <isr10>:
    5101:	fa                   	cli    
    5102:	6a 0a                	push   $0xa
    5104:	e9 9c 00 00 00       	jmp    51a5 <isr_common_stub>

00005109 <isr11>:
    5109:	fa                   	cli    
    510a:	6a 0b                	push   $0xb
    510c:	e9 94 00 00 00       	jmp    51a5 <isr_common_stub>

00005111 <isr12>:
    5111:	fa                   	cli    
    5112:	6a 0c                	push   $0xc
    5114:	e9 8c 00 00 00       	jmp    51a5 <isr_common_stub>

00005119 <isr13>:
    5119:	fa                   	cli    
    511a:	6a 0d                	push   $0xd
    511c:	e9 84 00 00 00       	jmp    51a5 <isr_common_stub>

00005121 <isr14>:
    5121:	fa                   	cli    
    5122:	6a 0e                	push   $0xe
    5124:	eb 7f                	jmp    51a5 <isr_common_stub>

00005126 <isr15>:
    5126:	fa                   	cli    
    5127:	6a 00                	push   $0x0
    5129:	6a 0f                	push   $0xf
    512b:	eb 78                	jmp    51a5 <isr_common_stub>

0000512d <isr16>:
    512d:	fa                   	cli    
    512e:	6a 00                	push   $0x0
    5130:	6a 10                	push   $0x10
    5132:	eb 71                	jmp    51a5 <isr_common_stub>

00005134 <isr17>:
    5134:	fa                   	cli    
    5135:	6a 11                	push   $0x11
    5137:	eb 6c                	jmp    51a5 <isr_common_stub>

00005139 <isr18>:
    5139:	fa                   	cli    
    513a:	6a 00                	push   $0x0
    513c:	6a 12                	push   $0x12
    513e:	eb 65                	jmp    51a5 <isr_common_stub>

00005140 <isr19>:
    5140:	fa                   	cli    
    5141:	6a 00                	push   $0x0
    5143:	6a 13                	push   $0x13
    5145:	eb 5e                	jmp    51a5 <isr_common_stub>

00005147 <isr20>:
    5147:	fa                   	cli    
    5148:	6a 00                	push   $0x0
    514a:	6a 14                	push   $0x14
    514c:	eb 57                	jmp    51a5 <isr_common_stub>

0000514e <isr21>:
    514e:	fa                   	cli    
    514f:	6a 00                	push   $0x0
    5151:	6a 15                	push   $0x15
    5153:	eb 50                	jmp    51a5 <isr_common_stub>

00005155 <isr22>:
    5155:	fa                   	cli    
    5156:	6a 00                	push   $0x0
    5158:	6a 16                	push   $0x16
    515a:	eb 49                	jmp    51a5 <isr_common_stub>

0000515c <isr23>:
    515c:	fa                   	cli    
    515d:	6a 00                	push   $0x0
    515f:	6a 17                	push   $0x17
    5161:	eb 42                	jmp    51a5 <isr_common_stub>

00005163 <isr24>:
    5163:	fa                   	cli    
    5164:	6a 00                	push   $0x0
    5166:	6a 18                	push   $0x18
    5168:	eb 3b                	jmp    51a5 <isr_common_stub>

0000516a <isr25>:
    516a:	fa                   	cli    
    516b:	6a 00                	push   $0x0
    516d:	6a 19                	push   $0x19
    516f:	eb 34                	jmp    51a5 <isr_common_stub>

00005171 <isr26>:
    5171:	fa                   	cli    
    5172:	6a 00                	push   $0x0
    5174:	6a 1a                	push   $0x1a
    5176:	eb 2d                	jmp    51a5 <isr_common_stub>

00005178 <isr27>:
    5178:	fa                   	cli    
    5179:	6a 00                	push   $0x0
    517b:	6a 1b                	push   $0x1b
    517d:	eb 26                	jmp    51a5 <isr_common_stub>

0000517f <isr28>:
    517f:	fa                   	cli    
    5180:	6a 00                	push   $0x0
    5182:	6a 1c                	push   $0x1c
    5184:	eb 1f                	jmp    51a5 <isr_common_stub>

00005186 <isr29>:
    5186:	fa                   	cli    
    5187:	6a 00                	push   $0x0
    5189:	6a 1d                	push   $0x1d
    518b:	eb 18                	jmp    51a5 <isr_common_stub>

0000518d <isr30>:
    518d:	fa                   	cli    
    518e:	6a 00                	push   $0x0
    5190:	6a 1e                	push   $0x1e
    5192:	eb 11                	jmp    51a5 <isr_common_stub>

00005194 <isr31>:
    5194:	fa                   	cli    
    5195:	6a 00                	push   $0x0
    5197:	6a 1f                	push   $0x1f
    5199:	eb 0a                	jmp    51a5 <isr_common_stub>

0000519b <isr255>:
    519b:	fa                   	cli    
    519c:	6a 00                	push   $0x0
    519e:	68 ff 00 00 00       	push   $0xff
    51a3:	eb 00                	jmp    51a5 <isr_common_stub>

000051a5 <isr_common_stub>:
    51a5:	60                   	pusha  
    51a6:	66 8c d8             	mov    %ds,%ax
    51a9:	50                   	push   %eax
    51aa:	66 b8 10 00          	mov    $0x10,%ax
    51ae:	8e d8                	mov    %eax,%ds
    51b0:	8e c0                	mov    %eax,%es
    51b2:	8e e0                	mov    %eax,%fs
    51b4:	8e e8                	mov    %eax,%gs
    51b6:	8e d0                	mov    %eax,%ss
    51b8:	54                   	push   %esp
    51b9:	e8 fd 03 00 00       	call   55bb <isr_handler>
    51be:	83 c4 04             	add    $0x4,%esp
    51c1:	5b                   	pop    %ebx
    51c2:	8e db                	mov    %ebx,%ds
    51c4:	8e c3                	mov    %ebx,%es
    51c6:	8e e3                	mov    %ebx,%fs
    51c8:	8e eb                	mov    %ebx,%gs
    51ca:	8e d3                	mov    %ebx,%ss
    51cc:	61                   	popa   
    51cd:	83 c4 08             	add    $0x8,%esp
    51d0:	cf                   	iret   

000051d1 <irq0>:
    51d1:	fa                   	cli    
    51d2:	6a 00                	push   $0x0
    51d4:	6a 20                	push   $0x20
    51d6:	eb 69                	jmp    5241 <irq_common_stub>

000051d8 <irq1>:
    51d8:	fa                   	cli    
    51d9:	6a 00                	push   $0x0
    51db:	6a 21                	push   $0x21
    51dd:	eb 62                	jmp    5241 <irq_common_stub>

000051df <irq2>:
    51df:	fa                   	cli    
    51e0:	6a 00                	push   $0x0
    51e2:	6a 22                	push   $0x22
    51e4:	eb 5b                	jmp    5241 <irq_common_stub>

000051e6 <irq3>:
    51e6:	fa                   	cli    
    51e7:	6a 00                	push   $0x0
    51e9:	6a 23                	push   $0x23
    51eb:	eb 54                	jmp    5241 <irq_common_stub>

000051ed <irq4>:
    51ed:	fa                   	cli    
    51ee:	6a 00                	push   $0x0
    51f0:	6a 24                	push   $0x24
    51f2:	eb 4d                	jmp    5241 <irq_common_stub>

000051f4 <irq5>:
    51f4:	fa                   	cli    
    51f5:	6a 00                	push   $0x0
    51f7:	6a 25                	push   $0x25
    51f9:	eb 46                	jmp    5241 <irq_common_stub>

000051fb <irq6>:
    51fb:	fa                   	cli    
    51fc:	6a 00                	push   $0x0
    51fe:	6a 26                	push   $0x26
    5200:	eb 3f                	jmp    5241 <irq_common_stub>

00005202 <irq7>:
    5202:	fa                   	cli    
    5203:	6a 00                	push   $0x0
    5205:	6a 27                	push   $0x27
    5207:	eb 38                	jmp    5241 <irq_common_stub>

00005209 <irq8>:
    5209:	fa                   	cli    
    520a:	6a 00                	push   $0x0
    520c:	6a 28                	push   $0x28
    520e:	eb 31                	jmp    5241 <irq_common_stub>

00005210 <irq9>:
    5210:	fa                   	cli    
    5211:	6a 00                	push   $0x0
    5213:	6a 29                	push   $0x29
    5215:	eb 2a                	jmp    5241 <irq_common_stub>

00005217 <irq10>:
    5217:	fa                   	cli    
    5218:	6a 00                	push   $0x0
    521a:	6a 2a                	push   $0x2a
    521c:	eb 23                	jmp    5241 <irq_common_stub>

0000521e <irq11>:
    521e:	fa                   	cli    
    521f:	6a 00                	push   $0x0
    5221:	6a 2b                	push   $0x2b
    5223:	eb 1c                	jmp    5241 <irq_common_stub>

00005225 <irq12>:
    5225:	fa                   	cli    
    5226:	6a 00                	push   $0x0
    5228:	6a 2c                	push   $0x2c
    522a:	eb 15                	jmp    5241 <irq_common_stub>

0000522c <irq13>:
    522c:	fa                   	cli    
    522d:	6a 00                	push   $0x0
    522f:	6a 2d                	push   $0x2d
    5231:	eb 0e                	jmp    5241 <irq_common_stub>

00005233 <irq14>:
    5233:	fa                   	cli    
    5234:	6a 00                	push   $0x0
    5236:	6a 2e                	push   $0x2e
    5238:	eb 07                	jmp    5241 <irq_common_stub>

0000523a <irq15>:
    523a:	fa                   	cli    
    523b:	6a 00                	push   $0x0
    523d:	6a 2f                	push   $0x2f
    523f:	eb 00                	jmp    5241 <irq_common_stub>

00005241 <irq_common_stub>:
    5241:	60                   	pusha  
    5242:	66 8c d8             	mov    %ds,%ax
    5245:	50                   	push   %eax
    5246:	66 b8 10 00          	mov    $0x10,%ax
    524a:	8e d8                	mov    %eax,%ds
    524c:	8e c0                	mov    %eax,%es
    524e:	8e e0                	mov    %eax,%fs
    5250:	8e e8                	mov    %eax,%gs
    5252:	8e d0                	mov    %eax,%ss
    5254:	54                   	push   %esp
    5255:	e8 ac 03 00 00       	call   5606 <irq_handler>
    525a:	83 c4 04             	add    $0x4,%esp
    525d:	5b                   	pop    %ebx
    525e:	8e db                	mov    %ebx,%ds
    5260:	8e c3                	mov    %ebx,%es
    5262:	8e e3                	mov    %ebx,%fs
    5264:	8e eb                	mov    %ebx,%gs
    5266:	8e d3                	mov    %ebx,%ss
    5268:	61                   	popa   
    5269:	83 c4 08             	add    $0x8,%esp
    526c:	cf                   	iret   

0000526d <console_clear>:
    526d:	55                   	push   %ebp
    526e:	89 e5                	mov    %esp,%ebp
    5270:	83 ec 18             	sub    $0x18,%esp
    5273:	c6 45 f3 07          	movb   $0x7,-0xd(%ebp)
    5277:	0f b6 45 f3          	movzbl -0xd(%ebp),%eax
    527b:	c1 e0 08             	shl    $0x8,%eax
    527e:	83 c8 20             	or     $0x20,%eax
    5281:	66 89 45 f0          	mov    %ax,-0x10(%ebp)
    5285:	c7 45 f4 00 00 00 00 	movl   $0x0,-0xc(%ebp)
    528c:	eb 17                	jmp    52a5 <console_clear+0x38>
    528e:	a1 20 6c 00 00       	mov    0x6c20,%eax
    5293:	8b 55 f4             	mov    -0xc(%ebp),%edx
    5296:	01 d2                	add    %edx,%edx
    5298:	01 c2                	add    %eax,%edx
    529a:	0f b7 45 f0          	movzwl -0x10(%ebp),%eax
    529e:	66 89 02             	mov    %ax,(%edx)
    52a1:	83 45 f4 01          	addl   $0x1,-0xc(%ebp)
    52a5:	81 7d f4 cf 07 00 00 	cmpl   $0x7cf,-0xc(%ebp)
    52ac:	7e e0                	jle    528e <console_clear+0x21>
    52ae:	83 ec 08             	sub    $0x8,%esp
    52b1:	6a 00                	push   $0x0
    52b3:	6a 00                	push   $0x0
    52b5:	e8 47 01 00 00       	call   5401 <console_movecursor>
    52ba:	83 c4 10             	add    $0x10,%esp
    52bd:	90                   	nop
    52be:	c9                   	leave  
    52bf:	c3                   	ret    

000052c0 <console_puts>:
    52c0:	55                   	push   %ebp
    52c1:	89 e5                	mov    %esp,%ebp
    52c3:	83 ec 28             	sub    $0x28,%esp
    52c6:	8b 55 0c             	mov    0xc(%ebp),%edx
    52c9:	8b 45 10             	mov    0x10(%ebp),%eax
    52cc:	88 55 e4             	mov    %dl,-0x1c(%ebp)
    52cf:	88 45 e0             	mov    %al,-0x20(%ebp)
    52d2:	c7 45 f4 00 00 00 00 	movl   $0x0,-0xc(%ebp)
    52d9:	c7 45 f0 00 00 00 00 	movl   $0x0,-0x10(%ebp)
    52e0:	c7 45 ec 00 00 00 00 	movl   $0x0,-0x14(%ebp)
    52e7:	0f b6 45 e4          	movzbl -0x1c(%ebp),%eax
    52eb:	c1 e0 04             	shl    $0x4,%eax
    52ee:	89 c2                	mov    %eax,%edx
    52f0:	0f b6 45 e0          	movzbl -0x20(%ebp),%eax
    52f4:	83 e0 0f             	and    $0xf,%eax
    52f7:	09 d0                	or     %edx,%eax
    52f9:	88 45 eb             	mov    %al,-0x15(%ebp)
    52fc:	66 c7 45 e8 00 00    	movw   $0x0,-0x18(%ebp)
    5302:	e8 72 01 00 00       	call   5479 <console_readcursor>
    5307:	66 89 45 e8          	mov    %ax,-0x18(%ebp)
    530b:	0f b7 4d e8          	movzwl -0x18(%ebp),%ecx
    530f:	0f b7 c1             	movzwl %cx,%eax
    5312:	69 c0 cd cc 00 00    	imul   $0xcccd,%eax,%eax
    5318:	c1 e8 10             	shr    $0x10,%eax
    531b:	89 c2                	mov    %eax,%edx
    531d:	66 c1 ea 06          	shr    $0x6,%dx
    5321:	89 d0                	mov    %edx,%eax
    5323:	c1 e0 02             	shl    $0x2,%eax
    5326:	01 d0                	add    %edx,%eax
    5328:	c1 e0 04             	shl    $0x4,%eax
    532b:	29 c1                	sub    %eax,%ecx
    532d:	89 ca                	mov    %ecx,%edx
    532f:	0f b7 c2             	movzwl %dx,%eax
    5332:	89 45 f0             	mov    %eax,-0x10(%ebp)
    5335:	0f b7 45 e8          	movzwl -0x18(%ebp),%eax
    5339:	0f b7 c0             	movzwl %ax,%eax
    533c:	69 c0 cd cc 00 00    	imul   $0xcccd,%eax,%eax
    5342:	c1 e8 10             	shr    $0x10,%eax
    5345:	66 c1 e8 06          	shr    $0x6,%ax
    5349:	0f b7 c0             	movzwl %ax,%eax
    534c:	89 45 ec             	mov    %eax,-0x14(%ebp)
    534f:	e9 97 00 00 00       	jmp    53eb <console_puts+0x12b>
    5354:	8b 55 f4             	mov    -0xc(%ebp),%edx
    5357:	8b 45 08             	mov    0x8(%ebp),%eax
    535a:	01 d0                	add    %edx,%eax
    535c:	0f b6 00             	movzbl (%eax),%eax
    535f:	3c 0a                	cmp    $0xa,%al
    5361:	75 0f                	jne    5372 <console_puts+0xb2>
    5363:	83 45 ec 01          	addl   $0x1,-0x14(%ebp)
    5367:	c7 45 f0 00 00 00 00 	movl   $0x0,-0x10(%ebp)
    536e:	83 45 f4 01          	addl   $0x1,-0xc(%ebp)
    5372:	8b 55 f4             	mov    -0xc(%ebp),%edx
    5375:	8b 45 08             	mov    0x8(%ebp),%eax
    5378:	01 d0                	add    %edx,%eax
    537a:	0f b6 00             	movzbl (%eax),%eax
    537d:	3c 0a                	cmp    $0xa,%al
    537f:	74 d3                	je     5354 <console_puts+0x94>
    5381:	8b 55 f4             	mov    -0xc(%ebp),%edx
    5384:	8b 45 08             	mov    0x8(%ebp),%eax
    5387:	01 d0                	add    %edx,%eax
    5389:	0f b6 00             	movzbl (%eax),%eax
    538c:	84 c0                	test   %al,%al
    538e:	74 4a                	je     53da <console_puts+0x11a>
    5390:	8b 0d 20 6c 00 00    	mov    0x6c20,%ecx
    5396:	8b 55 ec             	mov    -0x14(%ebp),%edx
    5399:	89 d0                	mov    %edx,%eax
    539b:	c1 e0 02             	shl    $0x2,%eax
    539e:	01 d0                	add    %edx,%eax
    53a0:	c1 e0 04             	shl    $0x4,%eax
    53a3:	89 c2                	mov    %eax,%edx
    53a5:	8b 45 f0             	mov    -0x10(%ebp),%eax
    53a8:	01 d0                	add    %edx,%eax
    53aa:	01 c0                	add    %eax,%eax
    53ac:	01 c8                	add    %ecx,%eax
    53ae:	8b 4d f4             	mov    -0xc(%ebp),%ecx
    53b1:	8b 55 08             	mov    0x8(%ebp),%edx
    53b4:	01 ca                	add    %ecx,%edx
    53b6:	0f b6 12             	movzbl (%edx),%edx
    53b9:	0f b6 d2             	movzbl %dl,%edx
    53bc:	0f b6 4d eb          	movzbl -0x15(%ebp),%ecx
    53c0:	c1 e1 08             	shl    $0x8,%ecx
    53c3:	09 ca                	or     %ecx,%edx
    53c5:	66 89 10             	mov    %dx,(%eax)
    53c8:	83 45 f4 01          	addl   $0x1,-0xc(%ebp)
    53cc:	83 45 f0 01          	addl   $0x1,-0x10(%ebp)
    53d0:	83 7d f0 4e          	cmpl   $0x4e,-0x10(%ebp)
    53d4:	7e 04                	jle    53da <console_puts+0x11a>
    53d6:	83 45 ec 01          	addl   $0x1,-0x14(%ebp)
    53da:	83 ec 08             	sub    $0x8,%esp
    53dd:	ff 75 ec             	pushl  -0x14(%ebp)
    53e0:	ff 75 f0             	pushl  -0x10(%ebp)
    53e3:	e8 19 00 00 00       	call   5401 <console_movecursor>
    53e8:	83 c4 10             	add    $0x10,%esp
    53eb:	8b 55 f4             	mov    -0xc(%ebp),%edx
    53ee:	8b 45 08             	mov    0x8(%ebp),%eax
    53f1:	01 d0                	add    %edx,%eax
    53f3:	0f b6 00             	movzbl (%eax),%eax
    53f6:	84 c0                	test   %al,%al
    53f8:	0f 85 56 ff ff ff    	jne    5354 <console_puts+0x94>
    53fe:	90                   	nop
    53ff:	c9                   	leave  
    5400:	c3                   	ret    

00005401 <console_movecursor>:
    5401:	55                   	push   %ebp
    5402:	89 e5                	mov    %esp,%ebp
    5404:	83 ec 18             	sub    $0x18,%esp
    5407:	8b 45 0c             	mov    0xc(%ebp),%eax
    540a:	89 c2                	mov    %eax,%edx
    540c:	89 d0                	mov    %edx,%eax
    540e:	c1 e0 02             	shl    $0x2,%eax
    5411:	01 d0                	add    %edx,%eax
    5413:	c1 e0 04             	shl    $0x4,%eax
    5416:	89 c2                	mov    %eax,%edx
    5418:	8b 45 08             	mov    0x8(%ebp),%eax
    541b:	01 d0                	add    %edx,%eax
    541d:	66 89 45 f6          	mov    %ax,-0xa(%ebp)
    5421:	83 ec 08             	sub    $0x8,%esp
    5424:	6a 0e                	push   $0xe
    5426:	68 d4 03 00 00       	push   $0x3d4
    542b:	e8 dd 0a 00 00       	call   5f0d <outb>
    5430:	83 c4 10             	add    $0x10,%esp
    5433:	0f b7 45 f6          	movzwl -0xa(%ebp),%eax
    5437:	66 c1 e8 08          	shr    $0x8,%ax
    543b:	0f b7 c0             	movzwl %ax,%eax
    543e:	83 ec 08             	sub    $0x8,%esp
    5441:	50                   	push   %eax
    5442:	68 d5 03 00 00       	push   $0x3d5
    5447:	e8 c1 0a 00 00       	call   5f0d <outb>
    544c:	83 c4 10             	add    $0x10,%esp
    544f:	83 ec 08             	sub    $0x8,%esp
    5452:	6a 0f                	push   $0xf
    5454:	68 d4 03 00 00       	push   $0x3d4
    5459:	e8 af 0a 00 00       	call   5f0d <outb>
    545e:	83 c4 10             	add    $0x10,%esp
    5461:	0f b7 45 f6          	movzwl -0xa(%ebp),%eax
    5465:	83 ec 08             	sub    $0x8,%esp
    5468:	50                   	push   %eax
    5469:	68 d5 03 00 00       	push   $0x3d5
    546e:	e8 9a 0a 00 00       	call   5f0d <outb>
    5473:	83 c4 10             	add    $0x10,%esp
    5476:	90                   	nop
    5477:	c9                   	leave  
    5478:	c3                   	ret    

00005479 <console_readcursor>:
    5479:	55                   	push   %ebp
    547a:	89 e5                	mov    %esp,%ebp
    547c:	83 ec 18             	sub    $0x18,%esp
    547f:	c6 45 f7 00          	movb   $0x0,-0x9(%ebp)
    5483:	c6 45 f6 00          	movb   $0x0,-0xa(%ebp)
    5487:	83 ec 08             	sub    $0x8,%esp
    548a:	6a 0e                	push   $0xe
    548c:	68 d4 03 00 00       	push   $0x3d4
    5491:	e8 77 0a 00 00       	call   5f0d <outb>
    5496:	83 c4 10             	add    $0x10,%esp
    5499:	83 ec 0c             	sub    $0xc,%esp
    549c:	68 d5 03 00 00       	push   $0x3d5
    54a1:	e8 87 0a 00 00       	call   5f2d <inb>
    54a6:	83 c4 10             	add    $0x10,%esp
    54a9:	88 45 f6             	mov    %al,-0xa(%ebp)
    54ac:	83 ec 08             	sub    $0x8,%esp
    54af:	6a 0f                	push   $0xf
    54b1:	68 d4 03 00 00       	push   $0x3d4
    54b6:	e8 52 0a 00 00       	call   5f0d <outb>
    54bb:	83 c4 10             	add    $0x10,%esp
    54be:	83 ec 0c             	sub    $0xc,%esp
    54c1:	68 d5 03 00 00       	push   $0x3d5
    54c6:	e8 62 0a 00 00       	call   5f2d <inb>
    54cb:	83 c4 10             	add    $0x10,%esp
    54ce:	88 45 f7             	mov    %al,-0x9(%ebp)
    54d1:	0f b6 45 f6          	movzbl -0xa(%ebp),%eax
    54d5:	66 89 45 f4          	mov    %ax,-0xc(%ebp)
    54d9:	0f b7 45 f4          	movzwl -0xc(%ebp),%eax
    54dd:	c1 e0 08             	shl    $0x8,%eax
    54e0:	89 c2                	mov    %eax,%edx
    54e2:	0f b6 45 f7          	movzbl -0x9(%ebp),%eax
    54e6:	09 d0                	or     %edx,%eax
    54e8:	66 89 45 f4          	mov    %ax,-0xc(%ebp)
    54ec:	0f b7 45 f4          	movzwl -0xc(%ebp),%eax
    54f0:	c9                   	leave  
    54f1:	c3                   	ret    

000054f2 <init_pmm>:
    54f2:	55                   	push   %ebp
    54f3:	89 e5                	mov    %esp,%ebp
    54f5:	83 ec 18             	sub    $0x18,%esp
    54f8:	c7 45 f4 00 00 00 00 	movl   $0x0,-0xc(%ebp)
    54ff:	c7 05 64 74 40 00 00 	movl   $0x0,0x407464
    5506:	00 00 00 
    5509:	eb 5f                	jmp    556a <init_pmm+0x78>
    550b:	81 7d f4 00 e0 09 00 	cmpl   $0x9e000,-0xc(%ebp)
    5512:	77 34                	ja     5548 <init_pmm+0x56>
    5514:	83 ec 0c             	sub    $0xc,%esp
    5517:	ff 75 f4             	pushl  -0xc(%ebp)
    551a:	e8 57 00 00 00       	call   5576 <pmm_free_page>
    551f:	83 c4 10             	add    $0x10,%esp
    5522:	a1 40 74 00 00       	mov    0x7440,%eax
    5527:	83 c0 01             	add    $0x1,%eax
    552a:	a3 40 74 00 00       	mov    %eax,0x7440
    552f:	81 45 f4 00 10 00 00 	addl   $0x1000,-0xc(%ebp)
    5536:	81 7d f4 00 f0 09 00 	cmpl   $0x9f000,-0xc(%ebp)
    553d:	75 2b                	jne    556a <init_pmm+0x78>
    553f:	c7 45 f4 00 00 10 00 	movl   $0x100000,-0xc(%ebp)
    5546:	eb 22                	jmp    556a <init_pmm+0x78>
    5548:	83 ec 0c             	sub    $0xc,%esp
    554b:	ff 75 f4             	pushl  -0xc(%ebp)
    554e:	e8 23 00 00 00       	call   5576 <pmm_free_page>
    5553:	83 c4 10             	add    $0x10,%esp
    5556:	a1 40 74 00 00       	mov    0x7440,%eax
    555b:	83 c0 01             	add    $0x1,%eax
    555e:	a3 40 74 00 00       	mov    %eax,0x7440
    5563:	81 45 f4 00 10 00 00 	addl   $0x1000,-0xc(%ebp)
    556a:	81 7d f4 00 d0 ff 07 	cmpl   $0x7ffd000,-0xc(%ebp)
    5571:	76 98                	jbe    550b <init_pmm+0x19>
    5573:	90                   	nop
    5574:	c9                   	leave  
    5575:	c3                   	ret    

00005576 <pmm_free_page>:
    5576:	55                   	push   %ebp
    5577:	89 e5                	mov    %esp,%ebp
    5579:	a1 64 74 40 00       	mov    0x407464,%eax
    557e:	8d 50 01             	lea    0x1(%eax),%edx
    5581:	89 15 64 74 40 00    	mov    %edx,0x407464
    5587:	8b 55 08             	mov    0x8(%ebp),%edx
    558a:	89 14 85 60 74 00 00 	mov    %edx,0x7460(,%eax,4)
    5591:	90                   	nop
    5592:	5d                   	pop    %ebp
    5593:	c3                   	ret    

00005594 <pmm_alloc_page>:
    5594:	55                   	push   %ebp
    5595:	89 e5                	mov    %esp,%ebp
    5597:	83 ec 10             	sub    $0x10,%esp
    559a:	a1 64 74 40 00       	mov    0x407464,%eax
    559f:	83 e8 01             	sub    $0x1,%eax
    55a2:	a3 64 74 40 00       	mov    %eax,0x407464
    55a7:	a1 64 74 40 00       	mov    0x407464,%eax
    55ac:	8b 04 85 60 74 00 00 	mov    0x7460(,%eax,4),%eax
    55b3:	89 45 fc             	mov    %eax,-0x4(%ebp)
    55b6:	8b 45 fc             	mov    -0x4(%ebp),%eax
    55b9:	c9                   	leave  
    55ba:	c3                   	ret    

000055bb <isr_handler>:
    55bb:	55                   	push   %ebp
    55bc:	89 e5                	mov    %esp,%ebp
    55be:	83 ec 08             	sub    $0x8,%esp
    55c1:	8b 45 08             	mov    0x8(%ebp),%eax
    55c4:	8b 40 24             	mov    0x24(%eax),%eax
    55c7:	8b 04 85 e0 98 40 00 	mov    0x4098e0(,%eax,4),%eax
    55ce:	85 c0                	test   %eax,%eax
    55d0:	74 1a                	je     55ec <isr_handler+0x31>
    55d2:	8b 45 08             	mov    0x8(%ebp),%eax
    55d5:	8b 40 24             	mov    0x24(%eax),%eax
    55d8:	8b 04 85 e0 98 40 00 	mov    0x4098e0(,%eax,4),%eax
    55df:	83 ec 0c             	sub    $0xc,%esp
    55e2:	ff 75 08             	pushl  0x8(%ebp)
    55e5:	ff d0                	call   *%eax
    55e7:	83 c4 10             	add    $0x10,%esp
    55ea:	eb 17                	jmp    5603 <isr_handler+0x48>
    55ec:	8b 45 08             	mov    0x8(%ebp),%eax
    55ef:	8b 40 24             	mov    0x24(%eax),%eax
    55f2:	83 ec 08             	sub    $0x8,%esp
    55f5:	50                   	push   %eax
    55f6:	68 40 72 00 00       	push   $0x7240
    55fb:	e8 9f 09 00 00       	call   5f9f <printk>
    5600:	83 c4 10             	add    $0x10,%esp
    5603:	90                   	nop
    5604:	c9                   	leave  
    5605:	c3                   	ret    

00005606 <irq_handler>:
    5606:	55                   	push   %ebp
    5607:	89 e5                	mov    %esp,%ebp
    5609:	83 ec 08             	sub    $0x8,%esp
    560c:	8b 45 08             	mov    0x8(%ebp),%eax
    560f:	8b 40 24             	mov    0x24(%eax),%eax
    5612:	83 f8 28             	cmp    $0x28,%eax
    5615:	76 12                	jbe    5629 <irq_handler+0x23>
    5617:	83 ec 08             	sub    $0x8,%esp
    561a:	6a 20                	push   $0x20
    561c:	68 a0 00 00 00       	push   $0xa0
    5621:	e8 e7 08 00 00       	call   5f0d <outb>
    5626:	83 c4 10             	add    $0x10,%esp
    5629:	83 ec 08             	sub    $0x8,%esp
    562c:	6a 20                	push   $0x20
    562e:	6a 20                	push   $0x20
    5630:	e8 d8 08 00 00       	call   5f0d <outb>
    5635:	83 c4 10             	add    $0x10,%esp
    5638:	8b 45 08             	mov    0x8(%ebp),%eax
    563b:	8b 40 24             	mov    0x24(%eax),%eax
    563e:	8b 04 85 e0 98 40 00 	mov    0x4098e0(,%eax,4),%eax
    5645:	85 c0                	test   %eax,%eax
    5647:	74 18                	je     5661 <irq_handler+0x5b>
    5649:	8b 45 08             	mov    0x8(%ebp),%eax
    564c:	8b 40 24             	mov    0x24(%eax),%eax
    564f:	8b 04 85 e0 98 40 00 	mov    0x4098e0(,%eax,4),%eax
    5656:	83 ec 0c             	sub    $0xc,%esp
    5659:	ff 75 08             	pushl  0x8(%ebp)
    565c:	ff d0                	call   *%eax
    565e:	83 c4 10             	add    $0x10,%esp
    5661:	90                   	nop
    5662:	c9                   	leave  
    5663:	c3                   	ret    

00005664 <register_interrupt_handler>:
    5664:	55                   	push   %ebp
    5665:	89 e5                	mov    %esp,%ebp
    5667:	83 ec 04             	sub    $0x4,%esp
    566a:	8b 45 08             	mov    0x8(%ebp),%eax
    566d:	88 45 fc             	mov    %al,-0x4(%ebp)
    5670:	0f b6 45 fc          	movzbl -0x4(%ebp),%eax
    5674:	8b 55 0c             	mov    0xc(%ebp),%edx
    5677:	89 14 85 e0 98 40 00 	mov    %edx,0x4098e0(,%eax,4)
    567e:	90                   	nop
    567f:	c9                   	leave  
    5680:	c3                   	ret    

00005681 <init_vmm>:
    5681:	55                   	push   %ebp
    5682:	89 e5                	mov    %esp,%ebp
    5684:	83 ec 10             	sub    $0x10,%esp
    5687:	c7 45 fc 00 00 00 00 	movl   $0x0,-0x4(%ebp)
    568e:	c7 45 fc 00 00 00 00 	movl   $0x0,-0x4(%ebp)
    5695:	eb 1d                	jmp    56b4 <init_vmm+0x33>
    5697:	a1 24 6c 00 00       	mov    0x6c24,%eax
    569c:	8b 55 fc             	mov    -0x4(%ebp),%edx
    569f:	c1 e2 0e             	shl    $0xe,%edx
    56a2:	01 d0                	add    %edx,%eax
    56a4:	89 c2                	mov    %eax,%edx
    56a6:	8b 45 fc             	mov    -0x4(%ebp),%eax
    56a9:	89 14 85 80 74 40 00 	mov    %edx,0x407480(,%eax,4)
    56b0:	83 45 fc 01          	addl   $0x1,-0x4(%ebp)
    56b4:	81 7d fc ff 03 00 00 	cmpl   $0x3ff,-0x4(%ebp)
    56bb:	7e da                	jle    5697 <init_vmm+0x16>
    56bd:	90                   	nop
    56be:	c9                   	leave  
    56bf:	c3                   	ret    

000056c0 <memset>:
    56c0:	55                   	push   %ebp
    56c1:	89 e5                	mov    %esp,%ebp
    56c3:	83 ec 14             	sub    $0x14,%esp
    56c6:	8b 45 0c             	mov    0xc(%ebp),%eax
    56c9:	88 45 ec             	mov    %al,-0x14(%ebp)
    56cc:	8b 45 08             	mov    0x8(%ebp),%eax
    56cf:	89 45 fc             	mov    %eax,-0x4(%ebp)
    56d2:	eb 13                	jmp    56e7 <memset+0x27>
    56d4:	8b 45 fc             	mov    -0x4(%ebp),%eax
    56d7:	8d 50 01             	lea    0x1(%eax),%edx
    56da:	89 55 fc             	mov    %edx,-0x4(%ebp)
    56dd:	0f b6 55 ec          	movzbl -0x14(%ebp),%edx
    56e1:	88 10                	mov    %dl,(%eax)
    56e3:	83 6d 10 01          	subl   $0x1,0x10(%ebp)
    56e7:	83 7d 10 00          	cmpl   $0x0,0x10(%ebp)
    56eb:	75 e7                	jne    56d4 <memset+0x14>
    56ed:	90                   	nop
    56ee:	c9                   	leave  
    56ef:	c3                   	ret    

000056f0 <bzero>:
    56f0:	55                   	push   %ebp
    56f1:	89 e5                	mov    %esp,%ebp
    56f3:	ff 75 0c             	pushl  0xc(%ebp)
    56f6:	6a 00                	push   $0x0
    56f8:	ff 75 08             	pushl  0x8(%ebp)
    56fb:	e8 c0 ff ff ff       	call   56c0 <memset>
    5700:	83 c4 0c             	add    $0xc,%esp
    5703:	90                   	nop
    5704:	c9                   	leave  
    5705:	c3                   	ret    

00005706 <set_gdt>:
    5706:	55                   	push   %ebp
    5707:	89 e5                	mov    %esp,%ebp
    5709:	83 ec 08             	sub    $0x8,%esp
    570c:	8b 55 14             	mov    0x14(%ebp),%edx
    570f:	8b 45 18             	mov    0x18(%ebp),%eax
    5712:	88 55 fc             	mov    %dl,-0x4(%ebp)
    5715:	88 45 f8             	mov    %al,-0x8(%ebp)
    5718:	8b 45 10             	mov    0x10(%ebp),%eax
    571b:	89 c2                	mov    %eax,%edx
    571d:	8b 45 08             	mov    0x8(%ebp),%eax
    5720:	66 89 14 c5 00 9d 40 	mov    %dx,0x409d00(,%eax,8)
    5727:	00 
    5728:	8b 45 0c             	mov    0xc(%ebp),%eax
    572b:	89 c2                	mov    %eax,%edx
    572d:	8b 45 08             	mov    0x8(%ebp),%eax
    5730:	66 89 14 c5 02 9d 40 	mov    %dx,0x409d02(,%eax,8)
    5737:	00 
    5738:	8b 45 0c             	mov    0xc(%ebp),%eax
    573b:	c1 e8 10             	shr    $0x10,%eax
    573e:	89 c2                	mov    %eax,%edx
    5740:	8b 45 08             	mov    0x8(%ebp),%eax
    5743:	88 14 c5 04 9d 40 00 	mov    %dl,0x409d04(,%eax,8)
    574a:	8b 45 08             	mov    0x8(%ebp),%eax
    574d:	0f b6 55 fc          	movzbl -0x4(%ebp),%edx
    5751:	88 14 c5 05 9d 40 00 	mov    %dl,0x409d05(,%eax,8)
    5758:	8b 45 10             	mov    0x10(%ebp),%eax
    575b:	c1 e8 10             	shr    $0x10,%eax
    575e:	83 e0 0f             	and    $0xf,%eax
    5761:	89 c2                	mov    %eax,%edx
    5763:	8b 45 08             	mov    0x8(%ebp),%eax
    5766:	89 d1                	mov    %edx,%ecx
    5768:	83 e1 0f             	and    $0xf,%ecx
    576b:	0f b6 14 c5 06 9d 40 	movzbl 0x409d06(,%eax,8),%edx
    5772:	00 
    5773:	83 e2 f0             	and    $0xfffffff0,%edx
    5776:	09 ca                	or     %ecx,%edx
    5778:	88 14 c5 06 9d 40 00 	mov    %dl,0x409d06(,%eax,8)
    577f:	0f b6 45 f8          	movzbl -0x8(%ebp),%eax
    5783:	83 e0 0f             	and    $0xf,%eax
    5786:	89 c2                	mov    %eax,%edx
    5788:	8b 45 08             	mov    0x8(%ebp),%eax
    578b:	89 d1                	mov    %edx,%ecx
    578d:	c1 e1 04             	shl    $0x4,%ecx
    5790:	0f b6 14 c5 06 9d 40 	movzbl 0x409d06(,%eax,8),%edx
    5797:	00 
    5798:	83 e2 0f             	and    $0xf,%edx
    579b:	09 ca                	or     %ecx,%edx
    579d:	88 14 c5 06 9d 40 00 	mov    %dl,0x409d06(,%eax,8)
    57a4:	8b 45 0c             	mov    0xc(%ebp),%eax
    57a7:	c1 e8 18             	shr    $0x18,%eax
    57aa:	89 c2                	mov    %eax,%edx
    57ac:	8b 45 08             	mov    0x8(%ebp),%eax
    57af:	88 14 c5 07 9d 40 00 	mov    %dl,0x409d07(,%eax,8)
    57b6:	90                   	nop
    57b7:	c9                   	leave  
    57b8:	c3                   	ret    

000057b9 <set_idt>:
    57b9:	55                   	push   %ebp
    57ba:	89 e5                	mov    %esp,%ebp
    57bc:	83 ec 08             	sub    $0x8,%esp
    57bf:	8b 55 10             	mov    0x10(%ebp),%edx
    57c2:	8b 45 14             	mov    0x14(%ebp),%eax
    57c5:	66 89 55 fc          	mov    %dx,-0x4(%ebp)
    57c9:	66 89 45 f8          	mov    %ax,-0x8(%ebp)
    57cd:	8b 45 0c             	mov    0xc(%ebp),%eax
    57d0:	89 c2                	mov    %eax,%edx
    57d2:	8b 45 08             	mov    0x8(%ebp),%eax
    57d5:	66 89 14 c5 40 9d 40 	mov    %dx,0x409d40(,%eax,8)
    57dc:	00 
    57dd:	8b 45 0c             	mov    0xc(%ebp),%eax
    57e0:	c1 e8 10             	shr    $0x10,%eax
    57e3:	89 c2                	mov    %eax,%edx
    57e5:	8b 45 08             	mov    0x8(%ebp),%eax
    57e8:	66 89 14 c5 46 9d 40 	mov    %dx,0x409d46(,%eax,8)
    57ef:	00 
    57f0:	8b 45 08             	mov    0x8(%ebp),%eax
    57f3:	0f b7 55 fc          	movzwl -0x4(%ebp),%edx
    57f7:	66 89 14 c5 42 9d 40 	mov    %dx,0x409d42(,%eax,8)
    57fe:	00 
    57ff:	8b 45 08             	mov    0x8(%ebp),%eax
    5802:	c6 04 c5 44 9d 40 00 	movb   $0x0,0x409d44(,%eax,8)
    5809:	00 
    580a:	0f b7 45 f8          	movzwl -0x8(%ebp),%eax
    580e:	89 c2                	mov    %eax,%edx
    5810:	8b 45 08             	mov    0x8(%ebp),%eax
    5813:	88 14 c5 45 9d 40 00 	mov    %dl,0x409d45(,%eax,8)
    581a:	90                   	nop
    581b:	c9                   	leave  
    581c:	c3                   	ret    

0000581d <init_gdt>:
    581d:	55                   	push   %ebp
    581e:	89 e5                	mov    %esp,%ebp
    5820:	83 ec 08             	sub    $0x8,%esp
    5823:	83 ec 0c             	sub    $0xc,%esp
    5826:	68 5f 72 00 00       	push   $0x725f
    582b:	e8 6f 07 00 00       	call   5f9f <printk>
    5830:	83 c4 10             	add    $0x10,%esp
    5833:	66 c7 05 30 9d 40 00 	movw   $0x27,0x409d30
    583a:	27 00 
    583c:	b8 00 9d 40 00       	mov    $0x409d00,%eax
    5841:	a3 32 9d 40 00       	mov    %eax,0x409d32
    5846:	83 ec 0c             	sub    $0xc,%esp
    5849:	6a 00                	push   $0x0
    584b:	6a 00                	push   $0x0
    584d:	6a 00                	push   $0x0
    584f:	6a 00                	push   $0x0
    5851:	6a 00                	push   $0x0
    5853:	e8 ae fe ff ff       	call   5706 <set_gdt>
    5858:	83 c4 20             	add    $0x20,%esp
    585b:	83 ec 0c             	sub    $0xc,%esp
    585e:	6a 0c                	push   $0xc
    5860:	68 9a 00 00 00       	push   $0x9a
    5865:	68 ff ff 0f 00       	push   $0xfffff
    586a:	6a 00                	push   $0x0
    586c:	6a 01                	push   $0x1
    586e:	e8 93 fe ff ff       	call   5706 <set_gdt>
    5873:	83 c4 20             	add    $0x20,%esp
    5876:	83 ec 0c             	sub    $0xc,%esp
    5879:	6a 0c                	push   $0xc
    587b:	68 92 00 00 00       	push   $0x92
    5880:	68 ff ff 0f 00       	push   $0xfffff
    5885:	6a 00                	push   $0x0
    5887:	6a 02                	push   $0x2
    5889:	e8 78 fe ff ff       	call   5706 <set_gdt>
    588e:	83 c4 20             	add    $0x20,%esp
    5891:	83 ec 0c             	sub    $0xc,%esp
    5894:	6a 0c                	push   $0xc
    5896:	68 fa 00 00 00       	push   $0xfa
    589b:	68 ff ff 0f 00       	push   $0xfffff
    58a0:	6a 00                	push   $0x0
    58a2:	6a 03                	push   $0x3
    58a4:	e8 5d fe ff ff       	call   5706 <set_gdt>
    58a9:	83 c4 20             	add    $0x20,%esp
    58ac:	83 ec 0c             	sub    $0xc,%esp
    58af:	6a 0c                	push   $0xc
    58b1:	68 f2 00 00 00       	push   $0xf2
    58b6:	68 ff ff 0f 00       	push   $0xfffff
    58bb:	6a 00                	push   $0x0
    58bd:	6a 04                	push   $0x4
    58bf:	e8 42 fe ff ff       	call   5706 <set_gdt>
    58c4:	83 c4 20             	add    $0x20,%esp
    58c7:	83 ec 0c             	sub    $0xc,%esp
    58ca:	68 30 9d 40 00       	push   $0x409d30
    58cf:	e8 a6 f7 ff ff       	call   507a <load_gdtr>
    58d4:	83 c4 10             	add    $0x10,%esp
    58d7:	90                   	nop
    58d8:	c9                   	leave  
    58d9:	c3                   	ret    

000058da <init_idt>:
    58da:	55                   	push   %ebp
    58db:	89 e5                	mov    %esp,%ebp
    58dd:	83 ec 08             	sub    $0x8,%esp
    58e0:	83 ec 0c             	sub    $0xc,%esp
    58e3:	68 72 72 00 00       	push   $0x7272
    58e8:	e8 b2 06 00 00       	call   5f9f <printk>
    58ed:	83 c4 10             	add    $0x10,%esp
    58f0:	83 ec 08             	sub    $0x8,%esp
    58f3:	6a 11                	push   $0x11
    58f5:	6a 20                	push   $0x20
    58f7:	e8 11 06 00 00       	call   5f0d <outb>
    58fc:	83 c4 10             	add    $0x10,%esp
    58ff:	83 ec 08             	sub    $0x8,%esp
    5902:	6a 11                	push   $0x11
    5904:	68 a0 00 00 00       	push   $0xa0
    5909:	e8 ff 05 00 00       	call   5f0d <outb>
    590e:	83 c4 10             	add    $0x10,%esp
    5911:	83 ec 08             	sub    $0x8,%esp
    5914:	6a 20                	push   $0x20
    5916:	6a 21                	push   $0x21
    5918:	e8 f0 05 00 00       	call   5f0d <outb>
    591d:	83 c4 10             	add    $0x10,%esp
    5920:	83 ec 08             	sub    $0x8,%esp
    5923:	6a 28                	push   $0x28
    5925:	68 a1 00 00 00       	push   $0xa1
    592a:	e8 de 05 00 00       	call   5f0d <outb>
    592f:	83 c4 10             	add    $0x10,%esp
    5932:	83 ec 08             	sub    $0x8,%esp
    5935:	6a 04                	push   $0x4
    5937:	6a 21                	push   $0x21
    5939:	e8 cf 05 00 00       	call   5f0d <outb>
    593e:	83 c4 10             	add    $0x10,%esp
    5941:	83 ec 08             	sub    $0x8,%esp
    5944:	6a 02                	push   $0x2
    5946:	68 a1 00 00 00       	push   $0xa1
    594b:	e8 bd 05 00 00       	call   5f0d <outb>
    5950:	83 c4 10             	add    $0x10,%esp
    5953:	83 ec 08             	sub    $0x8,%esp
    5956:	6a 01                	push   $0x1
    5958:	6a 21                	push   $0x21
    595a:	e8 ae 05 00 00       	call   5f0d <outb>
    595f:	83 c4 10             	add    $0x10,%esp
    5962:	83 ec 08             	sub    $0x8,%esp
    5965:	6a 01                	push   $0x1
    5967:	68 a1 00 00 00       	push   $0xa1
    596c:	e8 9c 05 00 00       	call   5f0d <outb>
    5971:	83 c4 10             	add    $0x10,%esp
    5974:	83 ec 08             	sub    $0x8,%esp
    5977:	6a 00                	push   $0x0
    5979:	6a 21                	push   $0x21
    597b:	e8 8d 05 00 00       	call   5f0d <outb>
    5980:	83 c4 10             	add    $0x10,%esp
    5983:	83 ec 08             	sub    $0x8,%esp
    5986:	6a 00                	push   $0x0
    5988:	68 a1 00 00 00       	push   $0xa1
    598d:	e8 7b 05 00 00       	call   5f0d <outb>
    5992:	83 c4 10             	add    $0x10,%esp
    5995:	66 c7 05 38 9d 40 00 	movw   $0x7ff,0x409d38
    599c:	ff 07 
    599e:	b8 40 9d 40 00       	mov    $0x409d40,%eax
    59a3:	a3 3a 9d 40 00       	mov    %eax,0x409d3a
    59a8:	83 ec 08             	sub    $0x8,%esp
    59ab:	68 00 04 00 00       	push   $0x400
    59b0:	68 e0 98 40 00       	push   $0x4098e0
    59b5:	e8 36 fd ff ff       	call   56f0 <bzero>
    59ba:	83 c4 10             	add    $0x10,%esp
    59bd:	83 ec 08             	sub    $0x8,%esp
    59c0:	68 00 08 00 00       	push   $0x800
    59c5:	68 40 9d 40 00       	push   $0x409d40
    59ca:	e8 21 fd ff ff       	call   56f0 <bzero>
    59cf:	83 c4 10             	add    $0x10,%esp
    59d2:	b8 9f 50 00 00       	mov    $0x509f,%eax
    59d7:	68 8e 00 00 00       	push   $0x8e
    59dc:	6a 08                	push   $0x8
    59de:	50                   	push   %eax
    59df:	6a 00                	push   $0x0
    59e1:	e8 d3 fd ff ff       	call   57b9 <set_idt>
    59e6:	83 c4 10             	add    $0x10,%esp
    59e9:	b8 a9 50 00 00       	mov    $0x50a9,%eax
    59ee:	68 8e 00 00 00       	push   $0x8e
    59f3:	6a 08                	push   $0x8
    59f5:	50                   	push   %eax
    59f6:	6a 01                	push   $0x1
    59f8:	e8 bc fd ff ff       	call   57b9 <set_idt>
    59fd:	83 c4 10             	add    $0x10,%esp
    5a00:	b8 b3 50 00 00       	mov    $0x50b3,%eax
    5a05:	68 8e 00 00 00       	push   $0x8e
    5a0a:	6a 08                	push   $0x8
    5a0c:	50                   	push   %eax
    5a0d:	6a 02                	push   $0x2
    5a0f:	e8 a5 fd ff ff       	call   57b9 <set_idt>
    5a14:	83 c4 10             	add    $0x10,%esp
    5a17:	b8 bd 50 00 00       	mov    $0x50bd,%eax
    5a1c:	68 8e 00 00 00       	push   $0x8e
    5a21:	6a 08                	push   $0x8
    5a23:	50                   	push   %eax
    5a24:	6a 03                	push   $0x3
    5a26:	e8 8e fd ff ff       	call   57b9 <set_idt>
    5a2b:	83 c4 10             	add    $0x10,%esp
    5a2e:	b8 c7 50 00 00       	mov    $0x50c7,%eax
    5a33:	68 8e 00 00 00       	push   $0x8e
    5a38:	6a 08                	push   $0x8
    5a3a:	50                   	push   %eax
    5a3b:	6a 04                	push   $0x4
    5a3d:	e8 77 fd ff ff       	call   57b9 <set_idt>
    5a42:	83 c4 10             	add    $0x10,%esp
    5a45:	b8 d1 50 00 00       	mov    $0x50d1,%eax
    5a4a:	68 8e 00 00 00       	push   $0x8e
    5a4f:	6a 08                	push   $0x8
    5a51:	50                   	push   %eax
    5a52:	6a 05                	push   $0x5
    5a54:	e8 60 fd ff ff       	call   57b9 <set_idt>
    5a59:	83 c4 10             	add    $0x10,%esp
    5a5c:	b8 db 50 00 00       	mov    $0x50db,%eax
    5a61:	68 8e 00 00 00       	push   $0x8e
    5a66:	6a 08                	push   $0x8
    5a68:	50                   	push   %eax
    5a69:	6a 06                	push   $0x6
    5a6b:	e8 49 fd ff ff       	call   57b9 <set_idt>
    5a70:	83 c4 10             	add    $0x10,%esp
    5a73:	b8 e5 50 00 00       	mov    $0x50e5,%eax
    5a78:	68 8e 00 00 00       	push   $0x8e
    5a7d:	6a 08                	push   $0x8
    5a7f:	50                   	push   %eax
    5a80:	6a 07                	push   $0x7
    5a82:	e8 32 fd ff ff       	call   57b9 <set_idt>
    5a87:	83 c4 10             	add    $0x10,%esp
    5a8a:	b8 ef 50 00 00       	mov    $0x50ef,%eax
    5a8f:	68 8e 00 00 00       	push   $0x8e
    5a94:	6a 08                	push   $0x8
    5a96:	50                   	push   %eax
    5a97:	6a 08                	push   $0x8
    5a99:	e8 1b fd ff ff       	call   57b9 <set_idt>
    5a9e:	83 c4 10             	add    $0x10,%esp
    5aa1:	b8 f7 50 00 00       	mov    $0x50f7,%eax
    5aa6:	68 8e 00 00 00       	push   $0x8e
    5aab:	6a 08                	push   $0x8
    5aad:	50                   	push   %eax
    5aae:	6a 09                	push   $0x9
    5ab0:	e8 04 fd ff ff       	call   57b9 <set_idt>
    5ab5:	83 c4 10             	add    $0x10,%esp
    5ab8:	b8 01 51 00 00       	mov    $0x5101,%eax
    5abd:	68 8e 00 00 00       	push   $0x8e
    5ac2:	6a 08                	push   $0x8
    5ac4:	50                   	push   %eax
    5ac5:	6a 0a                	push   $0xa
    5ac7:	e8 ed fc ff ff       	call   57b9 <set_idt>
    5acc:	83 c4 10             	add    $0x10,%esp
    5acf:	b8 09 51 00 00       	mov    $0x5109,%eax
    5ad4:	68 8e 00 00 00       	push   $0x8e
    5ad9:	6a 08                	push   $0x8
    5adb:	50                   	push   %eax
    5adc:	6a 0b                	push   $0xb
    5ade:	e8 d6 fc ff ff       	call   57b9 <set_idt>
    5ae3:	83 c4 10             	add    $0x10,%esp
    5ae6:	b8 11 51 00 00       	mov    $0x5111,%eax
    5aeb:	68 8e 00 00 00       	push   $0x8e
    5af0:	6a 08                	push   $0x8
    5af2:	50                   	push   %eax
    5af3:	6a 0c                	push   $0xc
    5af5:	e8 bf fc ff ff       	call   57b9 <set_idt>
    5afa:	83 c4 10             	add    $0x10,%esp
    5afd:	b8 19 51 00 00       	mov    $0x5119,%eax
    5b02:	68 8e 00 00 00       	push   $0x8e
    5b07:	6a 08                	push   $0x8
    5b09:	50                   	push   %eax
    5b0a:	6a 0d                	push   $0xd
    5b0c:	e8 a8 fc ff ff       	call   57b9 <set_idt>
    5b11:	83 c4 10             	add    $0x10,%esp
    5b14:	b8 21 51 00 00       	mov    $0x5121,%eax
    5b19:	68 8e 00 00 00       	push   $0x8e
    5b1e:	6a 08                	push   $0x8
    5b20:	50                   	push   %eax
    5b21:	6a 0e                	push   $0xe
    5b23:	e8 91 fc ff ff       	call   57b9 <set_idt>
    5b28:	83 c4 10             	add    $0x10,%esp
    5b2b:	b8 26 51 00 00       	mov    $0x5126,%eax
    5b30:	68 8e 00 00 00       	push   $0x8e
    5b35:	6a 08                	push   $0x8
    5b37:	50                   	push   %eax
    5b38:	6a 0f                	push   $0xf
    5b3a:	e8 7a fc ff ff       	call   57b9 <set_idt>
    5b3f:	83 c4 10             	add    $0x10,%esp
    5b42:	b8 2d 51 00 00       	mov    $0x512d,%eax
    5b47:	68 8e 00 00 00       	push   $0x8e
    5b4c:	6a 08                	push   $0x8
    5b4e:	50                   	push   %eax
    5b4f:	6a 10                	push   $0x10
    5b51:	e8 63 fc ff ff       	call   57b9 <set_idt>
    5b56:	83 c4 10             	add    $0x10,%esp
    5b59:	b8 34 51 00 00       	mov    $0x5134,%eax
    5b5e:	68 8e 00 00 00       	push   $0x8e
    5b63:	6a 08                	push   $0x8
    5b65:	50                   	push   %eax
    5b66:	6a 11                	push   $0x11
    5b68:	e8 4c fc ff ff       	call   57b9 <set_idt>
    5b6d:	83 c4 10             	add    $0x10,%esp
    5b70:	b8 39 51 00 00       	mov    $0x5139,%eax
    5b75:	68 8e 00 00 00       	push   $0x8e
    5b7a:	6a 08                	push   $0x8
    5b7c:	50                   	push   %eax
    5b7d:	6a 12                	push   $0x12
    5b7f:	e8 35 fc ff ff       	call   57b9 <set_idt>
    5b84:	83 c4 10             	add    $0x10,%esp
    5b87:	b8 40 51 00 00       	mov    $0x5140,%eax
    5b8c:	68 8e 00 00 00       	push   $0x8e
    5b91:	6a 08                	push   $0x8
    5b93:	50                   	push   %eax
    5b94:	6a 13                	push   $0x13
    5b96:	e8 1e fc ff ff       	call   57b9 <set_idt>
    5b9b:	83 c4 10             	add    $0x10,%esp
    5b9e:	b8 47 51 00 00       	mov    $0x5147,%eax
    5ba3:	68 8e 00 00 00       	push   $0x8e
    5ba8:	6a 08                	push   $0x8
    5baa:	50                   	push   %eax
    5bab:	6a 14                	push   $0x14
    5bad:	e8 07 fc ff ff       	call   57b9 <set_idt>
    5bb2:	83 c4 10             	add    $0x10,%esp
    5bb5:	b8 4e 51 00 00       	mov    $0x514e,%eax
    5bba:	68 8e 00 00 00       	push   $0x8e
    5bbf:	6a 08                	push   $0x8
    5bc1:	50                   	push   %eax
    5bc2:	6a 15                	push   $0x15
    5bc4:	e8 f0 fb ff ff       	call   57b9 <set_idt>
    5bc9:	83 c4 10             	add    $0x10,%esp
    5bcc:	b8 55 51 00 00       	mov    $0x5155,%eax
    5bd1:	68 8e 00 00 00       	push   $0x8e
    5bd6:	6a 08                	push   $0x8
    5bd8:	50                   	push   %eax
    5bd9:	6a 16                	push   $0x16
    5bdb:	e8 d9 fb ff ff       	call   57b9 <set_idt>
    5be0:	83 c4 10             	add    $0x10,%esp
    5be3:	b8 5c 51 00 00       	mov    $0x515c,%eax
    5be8:	68 8e 00 00 00       	push   $0x8e
    5bed:	6a 08                	push   $0x8
    5bef:	50                   	push   %eax
    5bf0:	6a 17                	push   $0x17
    5bf2:	e8 c2 fb ff ff       	call   57b9 <set_idt>
    5bf7:	83 c4 10             	add    $0x10,%esp
    5bfa:	b8 63 51 00 00       	mov    $0x5163,%eax
    5bff:	68 8e 00 00 00       	push   $0x8e
    5c04:	6a 08                	push   $0x8
    5c06:	50                   	push   %eax
    5c07:	6a 18                	push   $0x18
    5c09:	e8 ab fb ff ff       	call   57b9 <set_idt>
    5c0e:	83 c4 10             	add    $0x10,%esp
    5c11:	b8 6a 51 00 00       	mov    $0x516a,%eax
    5c16:	68 8e 00 00 00       	push   $0x8e
    5c1b:	6a 08                	push   $0x8
    5c1d:	50                   	push   %eax
    5c1e:	6a 19                	push   $0x19
    5c20:	e8 94 fb ff ff       	call   57b9 <set_idt>
    5c25:	83 c4 10             	add    $0x10,%esp
    5c28:	b8 71 51 00 00       	mov    $0x5171,%eax
    5c2d:	68 8e 00 00 00       	push   $0x8e
    5c32:	6a 08                	push   $0x8
    5c34:	50                   	push   %eax
    5c35:	6a 1a                	push   $0x1a
    5c37:	e8 7d fb ff ff       	call   57b9 <set_idt>
    5c3c:	83 c4 10             	add    $0x10,%esp
    5c3f:	b8 78 51 00 00       	mov    $0x5178,%eax
    5c44:	68 8e 00 00 00       	push   $0x8e
    5c49:	6a 08                	push   $0x8
    5c4b:	50                   	push   %eax
    5c4c:	6a 1b                	push   $0x1b
    5c4e:	e8 66 fb ff ff       	call   57b9 <set_idt>
    5c53:	83 c4 10             	add    $0x10,%esp
    5c56:	b8 7f 51 00 00       	mov    $0x517f,%eax
    5c5b:	68 8e 00 00 00       	push   $0x8e
    5c60:	6a 08                	push   $0x8
    5c62:	50                   	push   %eax
    5c63:	6a 1c                	push   $0x1c
    5c65:	e8 4f fb ff ff       	call   57b9 <set_idt>
    5c6a:	83 c4 10             	add    $0x10,%esp
    5c6d:	b8 86 51 00 00       	mov    $0x5186,%eax
    5c72:	68 8e 00 00 00       	push   $0x8e
    5c77:	6a 08                	push   $0x8
    5c79:	50                   	push   %eax
    5c7a:	6a 1d                	push   $0x1d
    5c7c:	e8 38 fb ff ff       	call   57b9 <set_idt>
    5c81:	83 c4 10             	add    $0x10,%esp
    5c84:	b8 8d 51 00 00       	mov    $0x518d,%eax
    5c89:	68 8e 00 00 00       	push   $0x8e
    5c8e:	6a 08                	push   $0x8
    5c90:	50                   	push   %eax
    5c91:	6a 1e                	push   $0x1e
    5c93:	e8 21 fb ff ff       	call   57b9 <set_idt>
    5c98:	83 c4 10             	add    $0x10,%esp
    5c9b:	b8 94 51 00 00       	mov    $0x5194,%eax
    5ca0:	68 8e 00 00 00       	push   $0x8e
    5ca5:	6a 08                	push   $0x8
    5ca7:	50                   	push   %eax
    5ca8:	6a 1f                	push   $0x1f
    5caa:	e8 0a fb ff ff       	call   57b9 <set_idt>
    5caf:	83 c4 10             	add    $0x10,%esp
    5cb2:	b8 d1 51 00 00       	mov    $0x51d1,%eax
    5cb7:	68 8e 00 00 00       	push   $0x8e
    5cbc:	6a 08                	push   $0x8
    5cbe:	50                   	push   %eax
    5cbf:	6a 20                	push   $0x20
    5cc1:	e8 f3 fa ff ff       	call   57b9 <set_idt>
    5cc6:	83 c4 10             	add    $0x10,%esp
    5cc9:	b8 d8 51 00 00       	mov    $0x51d8,%eax
    5cce:	68 8e 00 00 00       	push   $0x8e
    5cd3:	6a 08                	push   $0x8
    5cd5:	50                   	push   %eax
    5cd6:	6a 21                	push   $0x21
    5cd8:	e8 dc fa ff ff       	call   57b9 <set_idt>
    5cdd:	83 c4 10             	add    $0x10,%esp
    5ce0:	b8 df 51 00 00       	mov    $0x51df,%eax
    5ce5:	68 8e 00 00 00       	push   $0x8e
    5cea:	6a 08                	push   $0x8
    5cec:	50                   	push   %eax
    5ced:	6a 22                	push   $0x22
    5cef:	e8 c5 fa ff ff       	call   57b9 <set_idt>
    5cf4:	83 c4 10             	add    $0x10,%esp
    5cf7:	b8 e6 51 00 00       	mov    $0x51e6,%eax
    5cfc:	68 8e 00 00 00       	push   $0x8e
    5d01:	6a 08                	push   $0x8
    5d03:	50                   	push   %eax
    5d04:	6a 23                	push   $0x23
    5d06:	e8 ae fa ff ff       	call   57b9 <set_idt>
    5d0b:	83 c4 10             	add    $0x10,%esp
    5d0e:	b8 ed 51 00 00       	mov    $0x51ed,%eax
    5d13:	68 8e 00 00 00       	push   $0x8e
    5d18:	6a 08                	push   $0x8
    5d1a:	50                   	push   %eax
    5d1b:	6a 24                	push   $0x24
    5d1d:	e8 97 fa ff ff       	call   57b9 <set_idt>
    5d22:	83 c4 10             	add    $0x10,%esp
    5d25:	b8 f4 51 00 00       	mov    $0x51f4,%eax
    5d2a:	68 8e 00 00 00       	push   $0x8e
    5d2f:	6a 08                	push   $0x8
    5d31:	50                   	push   %eax
    5d32:	6a 25                	push   $0x25
    5d34:	e8 80 fa ff ff       	call   57b9 <set_idt>
    5d39:	83 c4 10             	add    $0x10,%esp
    5d3c:	b8 fb 51 00 00       	mov    $0x51fb,%eax
    5d41:	68 8e 00 00 00       	push   $0x8e
    5d46:	6a 08                	push   $0x8
    5d48:	50                   	push   %eax
    5d49:	6a 26                	push   $0x26
    5d4b:	e8 69 fa ff ff       	call   57b9 <set_idt>
    5d50:	83 c4 10             	add    $0x10,%esp
    5d53:	b8 02 52 00 00       	mov    $0x5202,%eax
    5d58:	68 8e 00 00 00       	push   $0x8e
    5d5d:	6a 08                	push   $0x8
    5d5f:	50                   	push   %eax
    5d60:	6a 27                	push   $0x27
    5d62:	e8 52 fa ff ff       	call   57b9 <set_idt>
    5d67:	83 c4 10             	add    $0x10,%esp
    5d6a:	b8 09 52 00 00       	mov    $0x5209,%eax
    5d6f:	68 8e 00 00 00       	push   $0x8e
    5d74:	6a 08                	push   $0x8
    5d76:	50                   	push   %eax
    5d77:	6a 28                	push   $0x28
    5d79:	e8 3b fa ff ff       	call   57b9 <set_idt>
    5d7e:	83 c4 10             	add    $0x10,%esp
    5d81:	b8 10 52 00 00       	mov    $0x5210,%eax
    5d86:	68 8e 00 00 00       	push   $0x8e
    5d8b:	6a 08                	push   $0x8
    5d8d:	50                   	push   %eax
    5d8e:	6a 29                	push   $0x29
    5d90:	e8 24 fa ff ff       	call   57b9 <set_idt>
    5d95:	83 c4 10             	add    $0x10,%esp
    5d98:	b8 17 52 00 00       	mov    $0x5217,%eax
    5d9d:	68 8e 00 00 00       	push   $0x8e
    5da2:	6a 08                	push   $0x8
    5da4:	50                   	push   %eax
    5da5:	6a 2a                	push   $0x2a
    5da7:	e8 0d fa ff ff       	call   57b9 <set_idt>
    5dac:	83 c4 10             	add    $0x10,%esp
    5daf:	b8 1e 52 00 00       	mov    $0x521e,%eax
    5db4:	68 8e 00 00 00       	push   $0x8e
    5db9:	6a 08                	push   $0x8
    5dbb:	50                   	push   %eax
    5dbc:	6a 2b                	push   $0x2b
    5dbe:	e8 f6 f9 ff ff       	call   57b9 <set_idt>
    5dc3:	83 c4 10             	add    $0x10,%esp
    5dc6:	b8 25 52 00 00       	mov    $0x5225,%eax
    5dcb:	68 8e 00 00 00       	push   $0x8e
    5dd0:	6a 08                	push   $0x8
    5dd2:	50                   	push   %eax
    5dd3:	6a 2c                	push   $0x2c
    5dd5:	e8 df f9 ff ff       	call   57b9 <set_idt>
    5dda:	83 c4 10             	add    $0x10,%esp
    5ddd:	b8 2c 52 00 00       	mov    $0x522c,%eax
    5de2:	68 8e 00 00 00       	push   $0x8e
    5de7:	6a 08                	push   $0x8
    5de9:	50                   	push   %eax
    5dea:	6a 2d                	push   $0x2d
    5dec:	e8 c8 f9 ff ff       	call   57b9 <set_idt>
    5df1:	83 c4 10             	add    $0x10,%esp
    5df4:	b8 33 52 00 00       	mov    $0x5233,%eax
    5df9:	68 8e 00 00 00       	push   $0x8e
    5dfe:	6a 08                	push   $0x8
    5e00:	50                   	push   %eax
    5e01:	6a 2e                	push   $0x2e
    5e03:	e8 b1 f9 ff ff       	call   57b9 <set_idt>
    5e08:	83 c4 10             	add    $0x10,%esp
    5e0b:	b8 3a 52 00 00       	mov    $0x523a,%eax
    5e10:	68 8e 00 00 00       	push   $0x8e
    5e15:	6a 08                	push   $0x8
    5e17:	50                   	push   %eax
    5e18:	6a 2f                	push   $0x2f
    5e1a:	e8 9a f9 ff ff       	call   57b9 <set_idt>
    5e1f:	83 c4 10             	add    $0x10,%esp
    5e22:	b8 9b 51 00 00       	mov    $0x519b,%eax
    5e27:	68 8e 00 00 00       	push   $0x8e
    5e2c:	6a 08                	push   $0x8
    5e2e:	50                   	push   %eax
    5e2f:	68 ff 00 00 00       	push   $0xff
    5e34:	e8 80 f9 ff ff       	call   57b9 <set_idt>
    5e39:	83 c4 10             	add    $0x10,%esp
    5e3c:	83 ec 0c             	sub    $0xc,%esp
    5e3f:	68 38 9d 40 00       	push   $0x409d38
    5e44:	e8 4e f2 ff ff       	call   5097 <load_idtr>
    5e49:	83 c4 10             	add    $0x10,%esp
    5e4c:	90                   	nop
    5e4d:	c9                   	leave  
    5e4e:	c3                   	ret    

00005e4f <kernel_start>:
    5e4f:	55                   	push   %ebp
    5e50:	89 e5                	mov    %esp,%ebp
    5e52:	83 ec 18             	sub    $0x18,%esp
    5e55:	c7 45 f4 83 72 00 00 	movl   $0x7283,-0xc(%ebp)
    5e5c:	c7 45 f0 00 00 00 00 	movl   $0x0,-0x10(%ebp)
    5e63:	c7 45 ec 00 00 00 00 	movl   $0x0,-0x14(%ebp)
    5e6a:	e8 fe f3 ff ff       	call   526d <console_clear>
    5e6f:	83 ec 0c             	sub    $0xc,%esp
    5e72:	ff 75 f4             	pushl  -0xc(%ebp)
    5e75:	e8 25 01 00 00       	call   5f9f <printk>
    5e7a:	83 c4 10             	add    $0x10,%esp
    5e7d:	e8 9b f9 ff ff       	call   581d <init_gdt>
    5e82:	e8 53 fa ff ff       	call   58da <init_idt>
    5e87:	e8 6b 08 00 00       	call   66f7 <init_keyboard>
    5e8c:	83 ec 08             	sub    $0x8,%esp
    5e8f:	68 00 50 00 00       	push   $0x5000
    5e94:	68 a0 72 00 00       	push   $0x72a0
    5e99:	e8 01 01 00 00       	call   5f9f <printk>
    5e9e:	83 c4 10             	add    $0x10,%esp
    5ea1:	83 ec 08             	sub    $0x8,%esp
    5ea4:	68 40 a5 40 00       	push   $0x40a540
    5ea9:	68 bc 72 00 00       	push   $0x72bc
    5eae:	e8 ec 00 00 00       	call   5f9f <printk>
    5eb3:	83 c4 10             	add    $0x10,%esp
    5eb6:	b8 40 a5 40 00       	mov    $0x40a540,%eax
    5ebb:	05 ff 03 00 00       	add    $0x3ff,%eax
    5ec0:	ba 00 50 00 00       	mov    $0x5000,%edx
    5ec5:	29 d0                	sub    %edx,%eax
    5ec7:	8d 90 ff 03 00 00    	lea    0x3ff(%eax),%edx
    5ecd:	85 c0                	test   %eax,%eax
    5ecf:	0f 48 c2             	cmovs  %edx,%eax
    5ed2:	c1 f8 0a             	sar    $0xa,%eax
    5ed5:	83 ec 08             	sub    $0x8,%esp
    5ed8:	50                   	push   %eax
    5ed9:	68 d8 72 00 00       	push   $0x72d8
    5ede:	e8 bc 00 00 00       	call   5f9f <printk>
    5ee3:	83 c4 10             	add    $0x10,%esp
    5ee6:	e8 07 f6 ff ff       	call   54f2 <init_pmm>
    5eeb:	e8 a4 f6 ff ff       	call   5594 <pmm_alloc_page>
    5ef0:	89 45 f0             	mov    %eax,-0x10(%ebp)
    5ef3:	83 ec 08             	sub    $0x8,%esp
    5ef6:	ff 75 f0             	pushl  -0x10(%ebp)
    5ef9:	68 ec 72 00 00       	push   $0x72ec
    5efe:	e8 9c 00 00 00       	call   5f9f <printk>
    5f03:	83 c4 10             	add    $0x10,%esp
    5f06:	e8 85 08 00 00       	call   6790 <keyboard_read>
    5f0b:	eb f9                	jmp    5f06 <kernel_start+0xb7>

00005f0d <outb>:
    5f0d:	55                   	push   %ebp
    5f0e:	89 e5                	mov    %esp,%ebp
    5f10:	83 ec 08             	sub    $0x8,%esp
    5f13:	8b 55 08             	mov    0x8(%ebp),%edx
    5f16:	8b 45 0c             	mov    0xc(%ebp),%eax
    5f19:	66 89 55 fc          	mov    %dx,-0x4(%ebp)
    5f1d:	66 89 45 f8          	mov    %ax,-0x8(%ebp)
    5f21:	0f b7 55 fc          	movzwl -0x4(%ebp),%edx
    5f25:	0f b7 45 f8          	movzwl -0x8(%ebp),%eax
    5f29:	ee                   	out    %al,(%dx)
    5f2a:	90                   	nop
    5f2b:	c9                   	leave  
    5f2c:	c3                   	ret    

00005f2d <inb>:
    5f2d:	55                   	push   %ebp
    5f2e:	89 e5                	mov    %esp,%ebp
    5f30:	83 ec 14             	sub    $0x14,%esp
    5f33:	8b 45 08             	mov    0x8(%ebp),%eax
    5f36:	66 89 45 ec          	mov    %ax,-0x14(%ebp)
    5f3a:	c6 45 ff 00          	movb   $0x0,-0x1(%ebp)
    5f3e:	0f b7 45 ec          	movzwl -0x14(%ebp),%eax
    5f42:	89 c2                	mov    %eax,%edx
    5f44:	ec                   	in     (%dx),%al
    5f45:	88 45 ff             	mov    %al,-0x1(%ebp)
    5f48:	0f b6 45 ff          	movzbl -0x1(%ebp),%eax
    5f4c:	c9                   	leave  
    5f4d:	c3                   	ret    

00005f4e <inw>:
    5f4e:	55                   	push   %ebp
    5f4f:	89 e5                	mov    %esp,%ebp
    5f51:	83 ec 14             	sub    $0x14,%esp
    5f54:	8b 45 08             	mov    0x8(%ebp),%eax
    5f57:	66 89 45 ec          	mov    %ax,-0x14(%ebp)
    5f5b:	66 c7 45 fe 00 00    	movw   $0x0,-0x2(%ebp)
    5f61:	0f b7 45 ec          	movzwl -0x14(%ebp),%eax
    5f65:	89 c2                	mov    %eax,%edx
    5f67:	66 ed                	in     (%dx),%ax
    5f69:	66 89 45 fe          	mov    %ax,-0x2(%ebp)
    5f6d:	0f b7 45 fe          	movzwl -0x2(%ebp),%eax
    5f71:	c9                   	leave  
    5f72:	c3                   	ret    

00005f73 <strlen>:
    5f73:	55                   	push   %ebp
    5f74:	89 e5                	mov    %esp,%ebp
    5f76:	83 ec 10             	sub    $0x10,%esp
    5f79:	8b 45 08             	mov    0x8(%ebp),%eax
    5f7c:	89 45 fc             	mov    %eax,-0x4(%ebp)
    5f7f:	90                   	nop
    5f80:	8b 45 fc             	mov    -0x4(%ebp),%eax
    5f83:	8d 50 01             	lea    0x1(%eax),%edx
    5f86:	89 55 fc             	mov    %edx,-0x4(%ebp)
    5f89:	0f b6 00             	movzbl (%eax),%eax
    5f8c:	84 c0                	test   %al,%al
    5f8e:	75 f0                	jne    5f80 <strlen+0xd>
    5f90:	8b 55 fc             	mov    -0x4(%ebp),%edx
    5f93:	8b 45 08             	mov    0x8(%ebp),%eax
    5f96:	29 c2                	sub    %eax,%edx
    5f98:	89 d0                	mov    %edx,%eax
    5f9a:	83 e8 01             	sub    $0x1,%eax
    5f9d:	c9                   	leave  
    5f9e:	c3                   	ret    

00005f9f <printk>:
    5f9f:	55                   	push   %ebp
    5fa0:	89 e5                	mov    %esp,%ebp
    5fa2:	83 ec 18             	sub    $0x18,%esp
    5fa5:	8d 45 0c             	lea    0xc(%ebp),%eax
    5fa8:	89 45 f0             	mov    %eax,-0x10(%ebp)
    5fab:	8b 45 f0             	mov    -0x10(%ebp),%eax
    5fae:	83 ec 04             	sub    $0x4,%esp
    5fb1:	50                   	push   %eax
    5fb2:	ff 75 08             	pushl  0x8(%ebp)
    5fb5:	68 80 84 40 00       	push   $0x408480
    5fba:	e8 b8 02 00 00       	call   6277 <vsprintf>
    5fbf:	83 c4 10             	add    $0x10,%esp
    5fc2:	89 45 f4             	mov    %eax,-0xc(%ebp)
    5fc5:	8b 45 f4             	mov    -0xc(%ebp),%eax
    5fc8:	05 80 84 40 00       	add    $0x408480,%eax
    5fcd:	c6 00 00             	movb   $0x0,(%eax)
    5fd0:	83 ec 04             	sub    $0x4,%esp
    5fd3:	6a 07                	push   $0x7
    5fd5:	6a 00                	push   $0x0
    5fd7:	68 80 84 40 00       	push   $0x408480
    5fdc:	e8 df f2 ff ff       	call   52c0 <console_puts>
    5fe1:	83 c4 10             	add    $0x10,%esp
    5fe4:	90                   	nop
    5fe5:	c9                   	leave  
    5fe6:	c3                   	ret    

00005fe7 <skip_atoi>:
    5fe7:	55                   	push   %ebp
    5fe8:	89 e5                	mov    %esp,%ebp
    5fea:	53                   	push   %ebx
    5feb:	83 ec 10             	sub    $0x10,%esp
    5fee:	c7 45 f8 00 00 00 00 	movl   $0x0,-0x8(%ebp)
    5ff5:	eb 29                	jmp    6020 <skip_atoi+0x39>
    5ff7:	8b 55 f8             	mov    -0x8(%ebp),%edx
    5ffa:	89 d0                	mov    %edx,%eax
    5ffc:	c1 e0 02             	shl    $0x2,%eax
    5fff:	01 d0                	add    %edx,%eax
    6001:	01 c0                	add    %eax,%eax
    6003:	89 c3                	mov    %eax,%ebx
    6005:	8b 45 08             	mov    0x8(%ebp),%eax
    6008:	8b 00                	mov    (%eax),%eax
    600a:	8d 48 01             	lea    0x1(%eax),%ecx
    600d:	8b 55 08             	mov    0x8(%ebp),%edx
    6010:	89 0a                	mov    %ecx,(%edx)
    6012:	0f b6 00             	movzbl (%eax),%eax
    6015:	0f be c0             	movsbl %al,%eax
    6018:	01 d8                	add    %ebx,%eax
    601a:	83 e8 30             	sub    $0x30,%eax
    601d:	89 45 f8             	mov    %eax,-0x8(%ebp)
    6020:	8b 45 08             	mov    0x8(%ebp),%eax
    6023:	8b 00                	mov    (%eax),%eax
    6025:	0f b6 00             	movzbl (%eax),%eax
    6028:	3c 2f                	cmp    $0x2f,%al
    602a:	7e 0c                	jle    6038 <skip_atoi+0x51>
    602c:	8b 45 08             	mov    0x8(%ebp),%eax
    602f:	8b 00                	mov    (%eax),%eax
    6031:	0f b6 00             	movzbl (%eax),%eax
    6034:	3c 39                	cmp    $0x39,%al
    6036:	7e bf                	jle    5ff7 <skip_atoi+0x10>
    6038:	8b 45 f8             	mov    -0x8(%ebp),%eax
    603b:	83 c4 10             	add    $0x10,%esp
    603e:	5b                   	pop    %ebx
    603f:	5d                   	pop    %ebp
    6040:	c3                   	ret    

00006041 <number>:
    6041:	55                   	push   %ebp
    6042:	89 e5                	mov    %esp,%ebp
    6044:	53                   	push   %ebx
    6045:	83 ec 40             	sub    $0x40,%esp
    6048:	c7 45 f4 04 73 00 00 	movl   $0x7304,-0xc(%ebp)
    604f:	8b 45 1c             	mov    0x1c(%ebp),%eax
    6052:	83 e0 40             	and    $0x40,%eax
    6055:	85 c0                	test   %eax,%eax
    6057:	74 07                	je     6060 <number+0x1f>
    6059:	c7 45 f4 2c 73 00 00 	movl   $0x732c,-0xc(%ebp)
    6060:	8b 45 1c             	mov    0x1c(%ebp),%eax
    6063:	83 e0 10             	and    $0x10,%eax
    6066:	85 c0                	test   %eax,%eax
    6068:	74 04                	je     606e <number+0x2d>
    606a:	83 65 1c fe          	andl   $0xfffffffe,0x1c(%ebp)
    606e:	83 7d 10 01          	cmpl   $0x1,0x10(%ebp)
    6072:	7e 06                	jle    607a <number+0x39>
    6074:	83 7d 10 24          	cmpl   $0x24,0x10(%ebp)
    6078:	7e 0a                	jle    6084 <number+0x43>
    607a:	b8 00 00 00 00       	mov    $0x0,%eax
    607f:	e9 ed 01 00 00       	jmp    6271 <number+0x230>
    6084:	8b 45 1c             	mov    0x1c(%ebp),%eax
    6087:	83 e0 01             	and    $0x1,%eax
    608a:	85 c0                	test   %eax,%eax
    608c:	74 07                	je     6095 <number+0x54>
    608e:	b8 30 00 00 00       	mov    $0x30,%eax
    6093:	eb 05                	jmp    609a <number+0x59>
    6095:	b8 20 00 00 00       	mov    $0x20,%eax
    609a:	88 45 ef             	mov    %al,-0x11(%ebp)
    609d:	8b 45 1c             	mov    0x1c(%ebp),%eax
    60a0:	83 e0 02             	and    $0x2,%eax
    60a3:	85 c0                	test   %eax,%eax
    60a5:	74 0f                	je     60b6 <number+0x75>
    60a7:	83 7d 0c 00          	cmpl   $0x0,0xc(%ebp)
    60ab:	79 09                	jns    60b6 <number+0x75>
    60ad:	c6 45 fb 2d          	movb   $0x2d,-0x5(%ebp)
    60b1:	f7 5d 0c             	negl   0xc(%ebp)
    60b4:	eb 2a                	jmp    60e0 <number+0x9f>
    60b6:	8b 45 1c             	mov    0x1c(%ebp),%eax
    60b9:	83 e0 04             	and    $0x4,%eax
    60bc:	85 c0                	test   %eax,%eax
    60be:	75 18                	jne    60d8 <number+0x97>
    60c0:	8b 45 1c             	mov    0x1c(%ebp),%eax
    60c3:	83 e0 08             	and    $0x8,%eax
    60c6:	85 c0                	test   %eax,%eax
    60c8:	74 07                	je     60d1 <number+0x90>
    60ca:	b8 20 00 00 00       	mov    $0x20,%eax
    60cf:	eb 0c                	jmp    60dd <number+0x9c>
    60d1:	b8 00 00 00 00       	mov    $0x0,%eax
    60d6:	eb 05                	jmp    60dd <number+0x9c>
    60d8:	b8 2b 00 00 00       	mov    $0x2b,%eax
    60dd:	88 45 fb             	mov    %al,-0x5(%ebp)
    60e0:	80 7d fb 00          	cmpb   $0x0,-0x5(%ebp)
    60e4:	74 04                	je     60ea <number+0xa9>
    60e6:	83 6d 14 01          	subl   $0x1,0x14(%ebp)
    60ea:	8b 45 1c             	mov    0x1c(%ebp),%eax
    60ed:	83 e0 20             	and    $0x20,%eax
    60f0:	85 c0                	test   %eax,%eax
    60f2:	74 16                	je     610a <number+0xc9>
    60f4:	83 7d 10 10          	cmpl   $0x10,0x10(%ebp)
    60f8:	75 06                	jne    6100 <number+0xbf>
    60fa:	83 6d 14 02          	subl   $0x2,0x14(%ebp)
    60fe:	eb 0a                	jmp    610a <number+0xc9>
    6100:	83 7d 10 08          	cmpl   $0x8,0x10(%ebp)
    6104:	75 04                	jne    610a <number+0xc9>
    6106:	83 6d 14 01          	subl   $0x1,0x14(%ebp)
    610a:	c7 45 f0 00 00 00 00 	movl   $0x0,-0x10(%ebp)
    6111:	83 7d 0c 00          	cmpl   $0x0,0xc(%ebp)
    6115:	75 3d                	jne    6154 <number+0x113>
    6117:	8b 45 f0             	mov    -0x10(%ebp),%eax
    611a:	8d 50 01             	lea    0x1(%eax),%edx
    611d:	89 55 f0             	mov    %edx,-0x10(%ebp)
    6120:	c6 44 05 c4 30       	movb   $0x30,-0x3c(%ebp,%eax,1)
    6125:	eb 33                	jmp    615a <number+0x119>
    6127:	8b 4d f0             	mov    -0x10(%ebp),%ecx
    612a:	8d 41 01             	lea    0x1(%ecx),%eax
    612d:	89 45 f0             	mov    %eax,-0x10(%ebp)
    6130:	8b 45 0c             	mov    0xc(%ebp),%eax
    6133:	ba 00 00 00 00       	mov    $0x0,%edx
    6138:	8b 5d 10             	mov    0x10(%ebp),%ebx
    613b:	f7 f3                	div    %ebx
    613d:	89 45 0c             	mov    %eax,0xc(%ebp)
    6140:	89 55 e8             	mov    %edx,-0x18(%ebp)
    6143:	8b 45 e8             	mov    -0x18(%ebp),%eax
    6146:	89 c2                	mov    %eax,%edx
    6148:	8b 45 f4             	mov    -0xc(%ebp),%eax
    614b:	01 d0                	add    %edx,%eax
    614d:	0f b6 00             	movzbl (%eax),%eax
    6150:	88 44 0d c4          	mov    %al,-0x3c(%ebp,%ecx,1)
    6154:	83 7d 0c 00          	cmpl   $0x0,0xc(%ebp)
    6158:	75 cd                	jne    6127 <number+0xe6>
    615a:	8b 45 f0             	mov    -0x10(%ebp),%eax
    615d:	3b 45 18             	cmp    0x18(%ebp),%eax
    6160:	7e 06                	jle    6168 <number+0x127>
    6162:	8b 45 f0             	mov    -0x10(%ebp),%eax
    6165:	89 45 18             	mov    %eax,0x18(%ebp)
    6168:	8b 45 18             	mov    0x18(%ebp),%eax
    616b:	29 45 14             	sub    %eax,0x14(%ebp)
    616e:	8b 45 1c             	mov    0x1c(%ebp),%eax
    6171:	83 e0 11             	and    $0x11,%eax
    6174:	85 c0                	test   %eax,%eax
    6176:	75 1b                	jne    6193 <number+0x152>
    6178:	eb 0c                	jmp    6186 <number+0x145>
    617a:	8b 45 08             	mov    0x8(%ebp),%eax
    617d:	8d 50 01             	lea    0x1(%eax),%edx
    6180:	89 55 08             	mov    %edx,0x8(%ebp)
    6183:	c6 00 20             	movb   $0x20,(%eax)
    6186:	8b 45 14             	mov    0x14(%ebp),%eax
    6189:	8d 50 ff             	lea    -0x1(%eax),%edx
    618c:	89 55 14             	mov    %edx,0x14(%ebp)
    618f:	85 c0                	test   %eax,%eax
    6191:	7f e7                	jg     617a <number+0x139>
    6193:	80 7d fb 00          	cmpb   $0x0,-0x5(%ebp)
    6197:	74 0f                	je     61a8 <number+0x167>
    6199:	8b 45 08             	mov    0x8(%ebp),%eax
    619c:	8d 50 01             	lea    0x1(%eax),%edx
    619f:	89 55 08             	mov    %edx,0x8(%ebp)
    61a2:	0f b6 55 fb          	movzbl -0x5(%ebp),%edx
    61a6:	88 10                	mov    %dl,(%eax)
    61a8:	8b 45 1c             	mov    0x1c(%ebp),%eax
    61ab:	83 e0 20             	and    $0x20,%eax
    61ae:	85 c0                	test   %eax,%eax
    61b0:	74 38                	je     61ea <number+0x1a9>
    61b2:	83 7d 10 08          	cmpl   $0x8,0x10(%ebp)
    61b6:	75 0e                	jne    61c6 <number+0x185>
    61b8:	8b 45 08             	mov    0x8(%ebp),%eax
    61bb:	8d 50 01             	lea    0x1(%eax),%edx
    61be:	89 55 08             	mov    %edx,0x8(%ebp)
    61c1:	c6 00 30             	movb   $0x30,(%eax)
    61c4:	eb 24                	jmp    61ea <number+0x1a9>
    61c6:	83 7d 10 10          	cmpl   $0x10,0x10(%ebp)
    61ca:	75 1e                	jne    61ea <number+0x1a9>
    61cc:	8b 45 08             	mov    0x8(%ebp),%eax
    61cf:	8d 50 01             	lea    0x1(%eax),%edx
    61d2:	89 55 08             	mov    %edx,0x8(%ebp)
    61d5:	c6 00 30             	movb   $0x30,(%eax)
    61d8:	8b 45 08             	mov    0x8(%ebp),%eax
    61db:	8d 50 01             	lea    0x1(%eax),%edx
    61de:	89 55 08             	mov    %edx,0x8(%ebp)
    61e1:	8b 55 f4             	mov    -0xc(%ebp),%edx
    61e4:	0f b6 52 21          	movzbl 0x21(%edx),%edx
    61e8:	88 10                	mov    %dl,(%eax)
    61ea:	8b 45 1c             	mov    0x1c(%ebp),%eax
    61ed:	83 e0 10             	and    $0x10,%eax
    61f0:	85 c0                	test   %eax,%eax
    61f2:	75 2c                	jne    6220 <number+0x1df>
    61f4:	eb 0f                	jmp    6205 <number+0x1c4>
    61f6:	8b 45 08             	mov    0x8(%ebp),%eax
    61f9:	8d 50 01             	lea    0x1(%eax),%edx
    61fc:	89 55 08             	mov    %edx,0x8(%ebp)
    61ff:	0f b6 55 ef          	movzbl -0x11(%ebp),%edx
    6203:	88 10                	mov    %dl,(%eax)
    6205:	8b 45 14             	mov    0x14(%ebp),%eax
    6208:	8d 50 ff             	lea    -0x1(%eax),%edx
    620b:	89 55 14             	mov    %edx,0x14(%ebp)
    620e:	85 c0                	test   %eax,%eax
    6210:	7f e4                	jg     61f6 <number+0x1b5>
    6212:	eb 0c                	jmp    6220 <number+0x1df>
    6214:	8b 45 08             	mov    0x8(%ebp),%eax
    6217:	8d 50 01             	lea    0x1(%eax),%edx
    621a:	89 55 08             	mov    %edx,0x8(%ebp)
    621d:	c6 00 30             	movb   $0x30,(%eax)
    6220:	8b 45 18             	mov    0x18(%ebp),%eax
    6223:	8d 50 ff             	lea    -0x1(%eax),%edx
    6226:	89 55 18             	mov    %edx,0x18(%ebp)
    6229:	3b 45 f0             	cmp    -0x10(%ebp),%eax
    622c:	7f e6                	jg     6214 <number+0x1d3>
    622e:	eb 16                	jmp    6246 <number+0x205>
    6230:	8b 45 08             	mov    0x8(%ebp),%eax
    6233:	8d 50 01             	lea    0x1(%eax),%edx
    6236:	89 55 08             	mov    %edx,0x8(%ebp)
    6239:	8d 4d c4             	lea    -0x3c(%ebp),%ecx
    623c:	8b 55 f0             	mov    -0x10(%ebp),%edx
    623f:	01 ca                	add    %ecx,%edx
    6241:	0f b6 12             	movzbl (%edx),%edx
    6244:	88 10                	mov    %dl,(%eax)
    6246:	8b 45 f0             	mov    -0x10(%ebp),%eax
    6249:	8d 50 ff             	lea    -0x1(%eax),%edx
    624c:	89 55 f0             	mov    %edx,-0x10(%ebp)
    624f:	85 c0                	test   %eax,%eax
    6251:	7f dd                	jg     6230 <number+0x1ef>
    6253:	eb 0c                	jmp    6261 <number+0x220>
    6255:	8b 45 08             	mov    0x8(%ebp),%eax
    6258:	8d 50 01             	lea    0x1(%eax),%edx
    625b:	89 55 08             	mov    %edx,0x8(%ebp)
    625e:	c6 00 20             	movb   $0x20,(%eax)
    6261:	8b 45 14             	mov    0x14(%ebp),%eax
    6264:	8d 50 ff             	lea    -0x1(%eax),%edx
    6267:	89 55 14             	mov    %edx,0x14(%ebp)
    626a:	85 c0                	test   %eax,%eax
    626c:	7f e7                	jg     6255 <number+0x214>
    626e:	8b 45 08             	mov    0x8(%ebp),%eax
    6271:	83 c4 40             	add    $0x40,%esp
    6274:	5b                   	pop    %ebx
    6275:	5d                   	pop    %ebp
    6276:	c3                   	ret    

00006277 <vsprintf>:
    6277:	55                   	push   %ebp
    6278:	89 e5                	mov    %esp,%ebp
    627a:	83 ec 20             	sub    $0x20,%esp
    627d:	8b 45 08             	mov    0x8(%ebp),%eax
    6280:	89 45 f4             	mov    %eax,-0xc(%ebp)
    6283:	e9 ab 03 00 00       	jmp    6633 <vsprintf+0x3bc>
    6288:	8b 45 0c             	mov    0xc(%ebp),%eax
    628b:	0f b6 00             	movzbl (%eax),%eax
    628e:	3c 25                	cmp    $0x25,%al
    6290:	74 14                	je     62a6 <vsprintf+0x2f>
    6292:	8b 45 0c             	mov    0xc(%ebp),%eax
    6295:	0f b6 10             	movzbl (%eax),%edx
    6298:	8b 45 f4             	mov    -0xc(%ebp),%eax
    629b:	88 10                	mov    %dl,(%eax)
    629d:	83 45 f4 01          	addl   $0x1,-0xc(%ebp)
    62a1:	e9 84 03 00 00       	jmp    662a <vsprintf+0x3b3>
    62a6:	c7 45 ec 00 00 00 00 	movl   $0x0,-0x14(%ebp)
    62ad:	8b 45 0c             	mov    0xc(%ebp),%eax
    62b0:	83 c0 01             	add    $0x1,%eax
    62b3:	89 45 0c             	mov    %eax,0xc(%ebp)
    62b6:	8b 45 0c             	mov    0xc(%ebp),%eax
    62b9:	0f b6 00             	movzbl (%eax),%eax
    62bc:	0f be c0             	movsbl %al,%eax
    62bf:	83 e8 20             	sub    $0x20,%eax
    62c2:	83 f8 10             	cmp    $0x10,%eax
    62c5:	77 27                	ja     62ee <vsprintf+0x77>
    62c7:	8b 04 85 54 73 00 00 	mov    0x7354(,%eax,4),%eax
    62ce:	ff e0                	jmp    *%eax
    62d0:	83 4d ec 10          	orl    $0x10,-0x14(%ebp)
    62d4:	eb d7                	jmp    62ad <vsprintf+0x36>
    62d6:	83 4d ec 04          	orl    $0x4,-0x14(%ebp)
    62da:	eb d1                	jmp    62ad <vsprintf+0x36>
    62dc:	83 4d ec 08          	orl    $0x8,-0x14(%ebp)
    62e0:	eb cb                	jmp    62ad <vsprintf+0x36>
    62e2:	83 4d ec 20          	orl    $0x20,-0x14(%ebp)
    62e6:	eb c5                	jmp    62ad <vsprintf+0x36>
    62e8:	83 4d ec 01          	orl    $0x1,-0x14(%ebp)
    62ec:	eb bf                	jmp    62ad <vsprintf+0x36>
    62ee:	c7 45 e8 ff ff ff ff 	movl   $0xffffffff,-0x18(%ebp)
    62f5:	8b 45 0c             	mov    0xc(%ebp),%eax
    62f8:	0f b6 00             	movzbl (%eax),%eax
    62fb:	3c 2f                	cmp    $0x2f,%al
    62fd:	7e 1b                	jle    631a <vsprintf+0xa3>
    62ff:	8b 45 0c             	mov    0xc(%ebp),%eax
    6302:	0f b6 00             	movzbl (%eax),%eax
    6305:	3c 39                	cmp    $0x39,%al
    6307:	7f 11                	jg     631a <vsprintf+0xa3>
    6309:	8d 45 0c             	lea    0xc(%ebp),%eax
    630c:	50                   	push   %eax
    630d:	e8 d5 fc ff ff       	call   5fe7 <skip_atoi>
    6312:	83 c4 04             	add    $0x4,%esp
    6315:	89 45 e8             	mov    %eax,-0x18(%ebp)
    6318:	eb 25                	jmp    633f <vsprintf+0xc8>
    631a:	8b 45 0c             	mov    0xc(%ebp),%eax
    631d:	0f b6 00             	movzbl (%eax),%eax
    6320:	3c 2a                	cmp    $0x2a,%al
    6322:	75 1b                	jne    633f <vsprintf+0xc8>
    6324:	8b 45 10             	mov    0x10(%ebp),%eax
    6327:	8d 50 04             	lea    0x4(%eax),%edx
    632a:	89 55 10             	mov    %edx,0x10(%ebp)
    632d:	8b 00                	mov    (%eax),%eax
    632f:	89 45 e8             	mov    %eax,-0x18(%ebp)
    6332:	83 7d e8 00          	cmpl   $0x0,-0x18(%ebp)
    6336:	79 07                	jns    633f <vsprintf+0xc8>
    6338:	f7 5d e8             	negl   -0x18(%ebp)
    633b:	83 4d ec 10          	orl    $0x10,-0x14(%ebp)
    633f:	c7 45 e4 ff ff ff ff 	movl   $0xffffffff,-0x1c(%ebp)
    6346:	8b 45 0c             	mov    0xc(%ebp),%eax
    6349:	0f b6 00             	movzbl (%eax),%eax
    634c:	3c 2e                	cmp    $0x2e,%al
    634e:	75 53                	jne    63a3 <vsprintf+0x12c>
    6350:	8b 45 0c             	mov    0xc(%ebp),%eax
    6353:	83 c0 01             	add    $0x1,%eax
    6356:	89 45 0c             	mov    %eax,0xc(%ebp)
    6359:	8b 45 0c             	mov    0xc(%ebp),%eax
    635c:	0f b6 00             	movzbl (%eax),%eax
    635f:	3c 2f                	cmp    $0x2f,%al
    6361:	7e 1b                	jle    637e <vsprintf+0x107>
    6363:	8b 45 0c             	mov    0xc(%ebp),%eax
    6366:	0f b6 00             	movzbl (%eax),%eax
    6369:	3c 39                	cmp    $0x39,%al
    636b:	7f 11                	jg     637e <vsprintf+0x107>
    636d:	8d 45 0c             	lea    0xc(%ebp),%eax
    6370:	50                   	push   %eax
    6371:	e8 71 fc ff ff       	call   5fe7 <skip_atoi>
    6376:	83 c4 04             	add    $0x4,%esp
    6379:	89 45 e4             	mov    %eax,-0x1c(%ebp)
    637c:	eb 18                	jmp    6396 <vsprintf+0x11f>
    637e:	8b 45 0c             	mov    0xc(%ebp),%eax
    6381:	0f b6 00             	movzbl (%eax),%eax
    6384:	3c 2a                	cmp    $0x2a,%al
    6386:	75 0e                	jne    6396 <vsprintf+0x11f>
    6388:	8b 45 10             	mov    0x10(%ebp),%eax
    638b:	8d 50 04             	lea    0x4(%eax),%edx
    638e:	89 55 10             	mov    %edx,0x10(%ebp)
    6391:	8b 00                	mov    (%eax),%eax
    6393:	89 45 e4             	mov    %eax,-0x1c(%ebp)
    6396:	83 7d e4 00          	cmpl   $0x0,-0x1c(%ebp)
    639a:	79 07                	jns    63a3 <vsprintf+0x12c>
    639c:	c7 45 e4 00 00 00 00 	movl   $0x0,-0x1c(%ebp)
    63a3:	8b 45 0c             	mov    0xc(%ebp),%eax
    63a6:	0f b6 00             	movzbl (%eax),%eax
    63a9:	3c 68                	cmp    $0x68,%al
    63ab:	74 14                	je     63c1 <vsprintf+0x14a>
    63ad:	8b 45 0c             	mov    0xc(%ebp),%eax
    63b0:	0f b6 00             	movzbl (%eax),%eax
    63b3:	3c 6c                	cmp    $0x6c,%al
    63b5:	74 0a                	je     63c1 <vsprintf+0x14a>
    63b7:	8b 45 0c             	mov    0xc(%ebp),%eax
    63ba:	0f b6 00             	movzbl (%eax),%eax
    63bd:	3c 4c                	cmp    $0x4c,%al
    63bf:	75 09                	jne    63ca <vsprintf+0x153>
    63c1:	8b 45 0c             	mov    0xc(%ebp),%eax
    63c4:	83 c0 01             	add    $0x1,%eax
    63c7:	89 45 0c             	mov    %eax,0xc(%ebp)
    63ca:	8b 45 0c             	mov    0xc(%ebp),%eax
    63cd:	0f b6 00             	movzbl (%eax),%eax
    63d0:	0f be c0             	movsbl %al,%eax
    63d3:	83 e8 58             	sub    $0x58,%eax
    63d6:	83 f8 20             	cmp    $0x20,%eax
    63d9:	0f 87 0e 02 00 00    	ja     65ed <vsprintf+0x376>
    63df:	8b 04 85 98 73 00 00 	mov    0x7398(,%eax,4),%eax
    63e6:	ff e0                	jmp    *%eax
    63e8:	8b 45 ec             	mov    -0x14(%ebp),%eax
    63eb:	83 e0 10             	and    $0x10,%eax
    63ee:	85 c0                	test   %eax,%eax
    63f0:	75 18                	jne    640a <vsprintf+0x193>
    63f2:	eb 0c                	jmp    6400 <vsprintf+0x189>
    63f4:	8b 45 f4             	mov    -0xc(%ebp),%eax
    63f7:	8d 50 01             	lea    0x1(%eax),%edx
    63fa:	89 55 f4             	mov    %edx,-0xc(%ebp)
    63fd:	c6 00 20             	movb   $0x20,(%eax)
    6400:	83 6d e8 01          	subl   $0x1,-0x18(%ebp)
    6404:	83 7d e8 00          	cmpl   $0x0,-0x18(%ebp)
    6408:	7f ea                	jg     63f4 <vsprintf+0x17d>
    640a:	8b 45 f4             	mov    -0xc(%ebp),%eax
    640d:	8d 50 01             	lea    0x1(%eax),%edx
    6410:	89 55 f4             	mov    %edx,-0xc(%ebp)
    6413:	8b 55 10             	mov    0x10(%ebp),%edx
    6416:	8d 4a 04             	lea    0x4(%edx),%ecx
    6419:	89 4d 10             	mov    %ecx,0x10(%ebp)
    641c:	8b 12                	mov    (%edx),%edx
    641e:	88 10                	mov    %dl,(%eax)
    6420:	eb 0c                	jmp    642e <vsprintf+0x1b7>
    6422:	8b 45 f4             	mov    -0xc(%ebp),%eax
    6425:	8d 50 01             	lea    0x1(%eax),%edx
    6428:	89 55 f4             	mov    %edx,-0xc(%ebp)
    642b:	c6 00 20             	movb   $0x20,(%eax)
    642e:	83 6d e8 01          	subl   $0x1,-0x18(%ebp)
    6432:	83 7d e8 00          	cmpl   $0x0,-0x18(%ebp)
    6436:	7f ea                	jg     6422 <vsprintf+0x1ab>
    6438:	e9 ed 01 00 00       	jmp    662a <vsprintf+0x3b3>
    643d:	8b 45 10             	mov    0x10(%ebp),%eax
    6440:	8d 50 04             	lea    0x4(%eax),%edx
    6443:	89 55 10             	mov    %edx,0x10(%ebp)
    6446:	8b 00                	mov    (%eax),%eax
    6448:	89 45 f0             	mov    %eax,-0x10(%ebp)
    644b:	ff 75 f0             	pushl  -0x10(%ebp)
    644e:	e8 20 fb ff ff       	call   5f73 <strlen>
    6453:	83 c4 04             	add    $0x4,%esp
    6456:	89 45 fc             	mov    %eax,-0x4(%ebp)
    6459:	83 7d e4 00          	cmpl   $0x0,-0x1c(%ebp)
    645d:	79 08                	jns    6467 <vsprintf+0x1f0>
    645f:	8b 45 fc             	mov    -0x4(%ebp),%eax
    6462:	89 45 e4             	mov    %eax,-0x1c(%ebp)
    6465:	eb 0e                	jmp    6475 <vsprintf+0x1fe>
    6467:	8b 45 fc             	mov    -0x4(%ebp),%eax
    646a:	3b 45 e4             	cmp    -0x1c(%ebp),%eax
    646d:	7e 06                	jle    6475 <vsprintf+0x1fe>
    646f:	8b 45 e4             	mov    -0x1c(%ebp),%eax
    6472:	89 45 fc             	mov    %eax,-0x4(%ebp)
    6475:	8b 45 ec             	mov    -0x14(%ebp),%eax
    6478:	83 e0 10             	and    $0x10,%eax
    647b:	85 c0                	test   %eax,%eax
    647d:	75 1c                	jne    649b <vsprintf+0x224>
    647f:	eb 0c                	jmp    648d <vsprintf+0x216>
    6481:	8b 45 f4             	mov    -0xc(%ebp),%eax
    6484:	8d 50 01             	lea    0x1(%eax),%edx
    6487:	89 55 f4             	mov    %edx,-0xc(%ebp)
    648a:	c6 00 20             	movb   $0x20,(%eax)
    648d:	8b 45 e8             	mov    -0x18(%ebp),%eax
    6490:	8d 50 ff             	lea    -0x1(%eax),%edx
    6493:	89 55 e8             	mov    %edx,-0x18(%ebp)
    6496:	3b 45 fc             	cmp    -0x4(%ebp),%eax
    6499:	7f e6                	jg     6481 <vsprintf+0x20a>
    649b:	c7 45 f8 00 00 00 00 	movl   $0x0,-0x8(%ebp)
    64a2:	eb 1b                	jmp    64bf <vsprintf+0x248>
    64a4:	8b 45 f4             	mov    -0xc(%ebp),%eax
    64a7:	8d 50 01             	lea    0x1(%eax),%edx
    64aa:	89 55 f4             	mov    %edx,-0xc(%ebp)
    64ad:	8b 55 f0             	mov    -0x10(%ebp),%edx
    64b0:	8d 4a 01             	lea    0x1(%edx),%ecx
    64b3:	89 4d f0             	mov    %ecx,-0x10(%ebp)
    64b6:	0f b6 12             	movzbl (%edx),%edx
    64b9:	88 10                	mov    %dl,(%eax)
    64bb:	83 45 f8 01          	addl   $0x1,-0x8(%ebp)
    64bf:	8b 45 f8             	mov    -0x8(%ebp),%eax
    64c2:	3b 45 fc             	cmp    -0x4(%ebp),%eax
    64c5:	7c dd                	jl     64a4 <vsprintf+0x22d>
    64c7:	eb 0c                	jmp    64d5 <vsprintf+0x25e>
    64c9:	8b 45 f4             	mov    -0xc(%ebp),%eax
    64cc:	8d 50 01             	lea    0x1(%eax),%edx
    64cf:	89 55 f4             	mov    %edx,-0xc(%ebp)
    64d2:	c6 00 20             	movb   $0x20,(%eax)
    64d5:	8b 45 e8             	mov    -0x18(%ebp),%eax
    64d8:	8d 50 ff             	lea    -0x1(%eax),%edx
    64db:	89 55 e8             	mov    %edx,-0x18(%ebp)
    64de:	3b 45 fc             	cmp    -0x4(%ebp),%eax
    64e1:	7f e6                	jg     64c9 <vsprintf+0x252>
    64e3:	e9 42 01 00 00       	jmp    662a <vsprintf+0x3b3>
    64e8:	8b 45 10             	mov    0x10(%ebp),%eax
    64eb:	8d 50 04             	lea    0x4(%eax),%edx
    64ee:	89 55 10             	mov    %edx,0x10(%ebp)
    64f1:	8b 00                	mov    (%eax),%eax
    64f3:	ff 75 ec             	pushl  -0x14(%ebp)
    64f6:	ff 75 e4             	pushl  -0x1c(%ebp)
    64f9:	ff 75 e8             	pushl  -0x18(%ebp)
    64fc:	6a 08                	push   $0x8
    64fe:	50                   	push   %eax
    64ff:	ff 75 f4             	pushl  -0xc(%ebp)
    6502:	e8 3a fb ff ff       	call   6041 <number>
    6507:	83 c4 18             	add    $0x18,%esp
    650a:	89 45 f4             	mov    %eax,-0xc(%ebp)
    650d:	e9 18 01 00 00       	jmp    662a <vsprintf+0x3b3>
    6512:	83 7d e8 ff          	cmpl   $0xffffffff,-0x18(%ebp)
    6516:	75 0b                	jne    6523 <vsprintf+0x2ac>
    6518:	c7 45 e8 08 00 00 00 	movl   $0x8,-0x18(%ebp)
    651f:	83 4d ec 01          	orl    $0x1,-0x14(%ebp)
    6523:	8b 45 10             	mov    0x10(%ebp),%eax
    6526:	8d 50 04             	lea    0x4(%eax),%edx
    6529:	89 55 10             	mov    %edx,0x10(%ebp)
    652c:	8b 00                	mov    (%eax),%eax
    652e:	ff 75 ec             	pushl  -0x14(%ebp)
    6531:	ff 75 e4             	pushl  -0x1c(%ebp)
    6534:	ff 75 e8             	pushl  -0x18(%ebp)
    6537:	6a 10                	push   $0x10
    6539:	50                   	push   %eax
    653a:	ff 75 f4             	pushl  -0xc(%ebp)
    653d:	e8 ff fa ff ff       	call   6041 <number>
    6542:	83 c4 18             	add    $0x18,%esp
    6545:	89 45 f4             	mov    %eax,-0xc(%ebp)
    6548:	e9 dd 00 00 00       	jmp    662a <vsprintf+0x3b3>
    654d:	83 4d ec 40          	orl    $0x40,-0x14(%ebp)
    6551:	8b 45 10             	mov    0x10(%ebp),%eax
    6554:	8d 50 04             	lea    0x4(%eax),%edx
    6557:	89 55 10             	mov    %edx,0x10(%ebp)
    655a:	8b 00                	mov    (%eax),%eax
    655c:	ff 75 ec             	pushl  -0x14(%ebp)
    655f:	ff 75 e4             	pushl  -0x1c(%ebp)
    6562:	ff 75 e8             	pushl  -0x18(%ebp)
    6565:	6a 10                	push   $0x10
    6567:	50                   	push   %eax
    6568:	ff 75 f4             	pushl  -0xc(%ebp)
    656b:	e8 d1 fa ff ff       	call   6041 <number>
    6570:	83 c4 18             	add    $0x18,%esp
    6573:	89 45 f4             	mov    %eax,-0xc(%ebp)
    6576:	e9 af 00 00 00       	jmp    662a <vsprintf+0x3b3>
    657b:	83 4d ec 02          	orl    $0x2,-0x14(%ebp)
    657f:	8b 45 10             	mov    0x10(%ebp),%eax
    6582:	8d 50 04             	lea    0x4(%eax),%edx
    6585:	89 55 10             	mov    %edx,0x10(%ebp)
    6588:	8b 00                	mov    (%eax),%eax
    658a:	ff 75 ec             	pushl  -0x14(%ebp)
    658d:	ff 75 e4             	pushl  -0x1c(%ebp)
    6590:	ff 75 e8             	pushl  -0x18(%ebp)
    6593:	6a 0a                	push   $0xa
    6595:	50                   	push   %eax
    6596:	ff 75 f4             	pushl  -0xc(%ebp)
    6599:	e8 a3 fa ff ff       	call   6041 <number>
    659e:	83 c4 18             	add    $0x18,%esp
    65a1:	89 45 f4             	mov    %eax,-0xc(%ebp)
    65a4:	e9 81 00 00 00       	jmp    662a <vsprintf+0x3b3>
    65a9:	8b 45 10             	mov    0x10(%ebp),%eax
    65ac:	8d 50 04             	lea    0x4(%eax),%edx
    65af:	89 55 10             	mov    %edx,0x10(%ebp)
    65b2:	8b 00                	mov    (%eax),%eax
    65b4:	ff 75 ec             	pushl  -0x14(%ebp)
    65b7:	ff 75 e4             	pushl  -0x1c(%ebp)
    65ba:	ff 75 e8             	pushl  -0x18(%ebp)
    65bd:	6a 02                	push   $0x2
    65bf:	50                   	push   %eax
    65c0:	ff 75 f4             	pushl  -0xc(%ebp)
    65c3:	e8 79 fa ff ff       	call   6041 <number>
    65c8:	83 c4 18             	add    $0x18,%esp
    65cb:	89 45 f4             	mov    %eax,-0xc(%ebp)
    65ce:	eb 5a                	jmp    662a <vsprintf+0x3b3>
    65d0:	8b 45 10             	mov    0x10(%ebp),%eax
    65d3:	8d 50 04             	lea    0x4(%eax),%edx
    65d6:	89 55 10             	mov    %edx,0x10(%ebp)
    65d9:	8b 00                	mov    (%eax),%eax
    65db:	89 45 e0             	mov    %eax,-0x20(%ebp)
    65de:	8b 55 f4             	mov    -0xc(%ebp),%edx
    65e1:	8b 45 08             	mov    0x8(%ebp),%eax
    65e4:	29 c2                	sub    %eax,%edx
    65e6:	8b 45 e0             	mov    -0x20(%ebp),%eax
    65e9:	89 10                	mov    %edx,(%eax)
    65eb:	eb 3d                	jmp    662a <vsprintf+0x3b3>
    65ed:	8b 45 0c             	mov    0xc(%ebp),%eax
    65f0:	0f b6 00             	movzbl (%eax),%eax
    65f3:	3c 25                	cmp    $0x25,%al
    65f5:	74 0c                	je     6603 <vsprintf+0x38c>
    65f7:	8b 45 f4             	mov    -0xc(%ebp),%eax
    65fa:	8d 50 01             	lea    0x1(%eax),%edx
    65fd:	89 55 f4             	mov    %edx,-0xc(%ebp)
    6600:	c6 00 25             	movb   $0x25,(%eax)
    6603:	8b 45 0c             	mov    0xc(%ebp),%eax
    6606:	0f b6 00             	movzbl (%eax),%eax
    6609:	84 c0                	test   %al,%al
    660b:	74 13                	je     6620 <vsprintf+0x3a9>
    660d:	8b 45 f4             	mov    -0xc(%ebp),%eax
    6610:	8d 50 01             	lea    0x1(%eax),%edx
    6613:	89 55 f4             	mov    %edx,-0xc(%ebp)
    6616:	8b 55 0c             	mov    0xc(%ebp),%edx
    6619:	0f b6 12             	movzbl (%edx),%edx
    661c:	88 10                	mov    %dl,(%eax)
    661e:	eb 09                	jmp    6629 <vsprintf+0x3b2>
    6620:	8b 45 0c             	mov    0xc(%ebp),%eax
    6623:	83 e8 01             	sub    $0x1,%eax
    6626:	89 45 0c             	mov    %eax,0xc(%ebp)
    6629:	90                   	nop
    662a:	8b 45 0c             	mov    0xc(%ebp),%eax
    662d:	83 c0 01             	add    $0x1,%eax
    6630:	89 45 0c             	mov    %eax,0xc(%ebp)
    6633:	8b 45 0c             	mov    0xc(%ebp),%eax
    6636:	0f b6 00             	movzbl (%eax),%eax
    6639:	84 c0                	test   %al,%al
    663b:	0f 85 47 fc ff ff    	jne    6288 <vsprintf+0x11>
    6641:	8b 45 f4             	mov    -0xc(%ebp),%eax
    6644:	c6 00 00             	movb   $0x0,(%eax)
    6647:	8b 55 f4             	mov    -0xc(%ebp),%edx
    664a:	8b 45 08             	mov    0x8(%ebp),%eax
    664d:	29 c2                	sub    %eax,%edx
    664f:	89 d0                	mov    %edx,%eax
    6651:	c9                   	leave  
    6652:	c3                   	ret    

00006653 <timer_callback>:
    6653:	55                   	push   %ebp
    6654:	89 e5                	mov    %esp,%ebp
    6656:	83 ec 08             	sub    $0x8,%esp
    6659:	a1 80 98 40 00       	mov    0x409880,%eax
    665e:	8d 50 01             	lea    0x1(%eax),%edx
    6661:	89 15 80 98 40 00    	mov    %edx,0x409880
    6667:	83 ec 08             	sub    $0x8,%esp
    666a:	50                   	push   %eax
    666b:	68 1c 74 00 00       	push   $0x741c
    6670:	e8 2a f9 ff ff       	call   5f9f <printk>
    6675:	83 c4 10             	add    $0x10,%esp
    6678:	90                   	nop
    6679:	c9                   	leave  
    667a:	c3                   	ret    

0000667b <init_timer>:
    667b:	55                   	push   %ebp
    667c:	89 e5                	mov    %esp,%ebp
    667e:	83 ec 18             	sub    $0x18,%esp
    6681:	c6 45 f7 00          	movb   $0x0,-0x9(%ebp)
    6685:	c6 45 f6 00          	movb   $0x0,-0xa(%ebp)
    6689:	c7 45 f0 00 00 00 00 	movl   $0x0,-0x10(%ebp)
    6690:	83 ec 08             	sub    $0x8,%esp
    6693:	68 53 66 00 00       	push   $0x6653
    6698:	6a 20                	push   $0x20
    669a:	e8 c5 ef ff ff       	call   5664 <register_interrupt_handler>
    669f:	83 c4 10             	add    $0x10,%esp
    66a2:	83 ec 08             	sub    $0x8,%esp
    66a5:	6a 36                	push   $0x36
    66a7:	6a 43                	push   $0x43
    66a9:	e8 5f f8 ff ff       	call   5f0d <outb>
    66ae:	83 c4 10             	add    $0x10,%esp
    66b1:	b8 dc 34 12 00       	mov    $0x1234dc,%eax
    66b6:	ba 00 00 00 00       	mov    $0x0,%edx
    66bb:	f7 75 08             	divl   0x8(%ebp)
    66be:	89 45 f0             	mov    %eax,-0x10(%ebp)
    66c1:	8b 45 f0             	mov    -0x10(%ebp),%eax
    66c4:	88 45 f7             	mov    %al,-0x9(%ebp)
    66c7:	8b 45 f0             	mov    -0x10(%ebp),%eax
    66ca:	c1 e8 08             	shr    $0x8,%eax
    66cd:	88 45 f6             	mov    %al,-0xa(%ebp)
    66d0:	0f b6 45 f7          	movzbl -0x9(%ebp),%eax
    66d4:	83 ec 08             	sub    $0x8,%esp
    66d7:	50                   	push   %eax
    66d8:	6a 40                	push   $0x40
    66da:	e8 2e f8 ff ff       	call   5f0d <outb>
    66df:	83 c4 10             	add    $0x10,%esp
    66e2:	0f b6 45 f6          	movzbl -0xa(%ebp),%eax
    66e6:	83 ec 08             	sub    $0x8,%esp
    66e9:	50                   	push   %eax
    66ea:	6a 40                	push   $0x40
    66ec:	e8 1c f8 ff ff       	call   5f0d <outb>
    66f1:	83 c4 10             	add    $0x10,%esp
    66f4:	90                   	nop
    66f5:	c9                   	leave  
    66f6:	c3                   	ret    

000066f7 <init_keyboard>:
    66f7:	55                   	push   %ebp
    66f8:	89 e5                	mov    %esp,%ebp
    66fa:	83 ec 08             	sub    $0x8,%esp
    66fd:	c7 05 a8 98 40 00 00 	movl   $0x0,0x4098a8
    6704:	00 00 00 
    6707:	c7 05 a4 98 40 00 ac 	movl   $0x4098ac,0x4098a4
    670e:	98 40 00 
    6711:	a1 a4 98 40 00       	mov    0x4098a4,%eax
    6716:	a3 a0 98 40 00       	mov    %eax,0x4098a0
    671b:	83 ec 08             	sub    $0x8,%esp
    671e:	68 30 67 00 00       	push   $0x6730
    6723:	6a 21                	push   $0x21
    6725:	e8 3a ef ff ff       	call   5664 <register_interrupt_handler>
    672a:	83 c4 10             	add    $0x10,%esp
    672d:	90                   	nop
    672e:	c9                   	leave  
    672f:	c3                   	ret    

00006730 <keyboard_handler>:
    6730:	55                   	push   %ebp
    6731:	89 e5                	mov    %esp,%ebp
    6733:	83 ec 18             	sub    $0x18,%esp
    6736:	83 ec 0c             	sub    $0xc,%esp
    6739:	6a 60                	push   $0x60
    673b:	e8 ed f7 ff ff       	call   5f2d <inb>
    6740:	83 c4 10             	add    $0x10,%esp
    6743:	88 45 f7             	mov    %al,-0x9(%ebp)
    6746:	a1 a8 98 40 00       	mov    0x4098a8,%eax
    674b:	83 f8 1f             	cmp    $0x1f,%eax
    674e:	7f 30                	jg     6780 <keyboard_handler+0x50>
    6750:	a1 a0 98 40 00       	mov    0x4098a0,%eax
    6755:	0f b6 55 f7          	movzbl -0x9(%ebp),%edx
    6759:	88 10                	mov    %dl,(%eax)
    675b:	a1 a0 98 40 00       	mov    0x4098a0,%eax
    6760:	83 c0 01             	add    $0x1,%eax
    6763:	a3 a0 98 40 00       	mov    %eax,0x4098a0
    6768:	a1 a0 98 40 00       	mov    0x4098a0,%eax
    676d:	ba cc 98 40 00       	mov    $0x4098cc,%edx
    6772:	39 d0                	cmp    %edx,%eax
    6774:	75 0a                	jne    6780 <keyboard_handler+0x50>
    6776:	c7 05 a0 98 40 00 ac 	movl   $0x4098ac,0x4098a0
    677d:	98 40 00 
    6780:	a1 a8 98 40 00       	mov    0x4098a8,%eax
    6785:	83 c0 01             	add    $0x1,%eax
    6788:	a3 a8 98 40 00       	mov    %eax,0x4098a8
    678d:	90                   	nop
    678e:	c9                   	leave  
    678f:	c3                   	ret    

00006790 <keyboard_read>:
    6790:	55                   	push   %ebp
    6791:	89 e5                	mov    %esp,%ebp
    6793:	83 ec 18             	sub    $0x18,%esp
    6796:	fa                   	cli    
    6797:	a1 a8 98 40 00       	mov    0x4098a8,%eax
    679c:	85 c0                	test   %eax,%eax
    679e:	7e 6c                	jle    680c <keyboard_read+0x7c>
    67a0:	a1 a4 98 40 00       	mov    0x4098a4,%eax
    67a5:	0f b6 00             	movzbl (%eax),%eax
    67a8:	88 45 f7             	mov    %al,-0x9(%ebp)
    67ab:	a1 a4 98 40 00       	mov    0x4098a4,%eax
    67b0:	83 c0 01             	add    $0x1,%eax
    67b3:	a3 a4 98 40 00       	mov    %eax,0x4098a4
    67b8:	a1 a4 98 40 00       	mov    0x4098a4,%eax
    67bd:	83 c0 01             	add    $0x1,%eax
    67c0:	a3 a4 98 40 00       	mov    %eax,0x4098a4
    67c5:	a1 a4 98 40 00       	mov    0x4098a4,%eax
    67ca:	ba cc 98 40 00       	mov    $0x4098cc,%edx
    67cf:	39 d0                	cmp    %edx,%eax
    67d1:	75 0a                	jne    67dd <keyboard_read+0x4d>
    67d3:	c7 05 a4 98 40 00 ac 	movl   $0x4098ac,0x4098a4
    67da:	98 40 00 
    67dd:	a1 a8 98 40 00       	mov    0x4098a8,%eax
    67e2:	83 e8 02             	sub    $0x2,%eax
    67e5:	a3 a8 98 40 00       	mov    %eax,0x4098a8
    67ea:	0f b6 55 f7          	movzbl -0x9(%ebp),%edx
    67ee:	89 d0                	mov    %edx,%eax
    67f0:	01 c0                	add    %eax,%eax
    67f2:	01 d0                	add    %edx,%eax
    67f4:	8b 04 85 40 6c 00 00 	mov    0x6c40(,%eax,4),%eax
    67fb:	83 ec 08             	sub    $0x8,%esp
    67fe:	50                   	push   %eax
    67ff:	68 25 74 00 00       	push   $0x7425
    6804:	e8 96 f7 ff ff       	call   5f9f <printk>
    6809:	83 c4 10             	add    $0x10,%esp
    680c:	fb                   	sti    
    680d:	90                   	nop
    680e:	c9                   	leave  
    680f:	c3                   	ret    
