
./init/kernel.elf:     file format elf32-i386


Disassembly of section .text:

00005000 <_start>:
    5000:	b8 10 00 00 00       	mov    $0x10,%eax
    5005:	8e d8                	mov    %eax,%ds
    5007:	8e c0                	mov    %eax,%es
    5009:	8e e0                	mov    %eax,%fs
    500b:	8e e8                	mov    %eax,%gs
    500d:	8e d0                	mov    %eax,%ss
    500f:	e8 1e 00 00 00       	call   5032 <setup_paging>
    5014:	31 c0                	xor    %eax,%eax
    5016:	0f 20 d8             	mov    %cr3,%eax
    5019:	0f 20 c0             	mov    %cr0,%eax
    501c:	0d 00 00 00 80       	or     $0x80000000,%eax
    5021:	0f 22 c0             	mov    %eax,%cr0
    5024:	bc a0 99 00 00       	mov    $0x99a0,%esp
    5029:	89 e5                	mov    %esp,%ebp
    502b:	b8 f2 6f 00 00       	mov    $0x6ff2,%eax
    5030:	ff e0                	jmp    *%eax

00005032 <setup_paging>:
    5032:	b9 00 14 00 00       	mov    $0x1400,%ecx
    5037:	31 c0                	xor    %eax,%eax
    5039:	31 ff                	xor    %edi,%edi
    503b:	fc                   	cld    
    503c:	f3 ab                	rep stos %eax,%es:(%edi)
    503e:	c7 05 00 00 00 00 07 	movl   $0x1007,0x0
    5045:	10 00 00 
    5048:	c7 05 04 00 00 00 07 	movl   $0x2007,0x4
    504f:	20 00 00 
    5052:	c7 05 08 00 00 00 07 	movl   $0x3007,0x8
    5059:	30 00 00 
    505c:	c7 05 0c 00 00 00 07 	movl   $0x4007,0xc
    5063:	40 00 00 
    5066:	b8 07 f0 ff 00       	mov    $0xfff007,%eax
    506b:	bf fc 4f 00 00       	mov    $0x4ffc,%edi
    5070:	fd                   	std    

00005071 <abcd>:
    5071:	ab                   	stos   %eax,%es:(%edi)
    5072:	2d 00 10 00 00       	sub    $0x1000,%eax
    5077:	7d f8                	jge    5071 <abcd>
    5079:	c3                   	ret    

0000507a <load_gdtr>:
    507a:	8b 44 24 04          	mov    0x4(%esp),%eax
    507e:	0f 01 10             	lgdtl  (%eax)
    5081:	66 b8 10 00          	mov    $0x10,%ax
    5085:	8e d8                	mov    %eax,%ds
    5087:	8e c0                	mov    %eax,%es
    5089:	8e e0                	mov    %eax,%fs
    508b:	8e e8                	mov    %eax,%gs
    508d:	8e d0                	mov    %eax,%ss
    508f:	ea 96 50 00 00 08 00 	ljmp   $0x8,$0x5096

00005096 <load_gdtr.flush>:
    5096:	c3                   	ret    

00005097 <load_idtr>:
    5097:	8b 44 24 04          	mov    0x4(%esp),%eax
    509b:	0f 01 18             	lidtl  (%eax)
    509e:	c3                   	ret    

0000509f <write_vram>:
    509f:	8b 4c 24 04          	mov    0x4(%esp),%ecx
    50a3:	8a 44 24 08          	mov    0x8(%esp),%al
    50a7:	88 01                	mov    %al,(%ecx)
    50a9:	c3                   	ret    

000050aa <isr0>:
    50aa:	fa                   	cli    
    50ab:	6a 00                	push   $0x0
    50ad:	6a 00                	push   $0x0
    50af:	e9 fc 00 00 00       	jmp    51b0 <isr_common_stub>

000050b4 <isr1>:
    50b4:	fa                   	cli    
    50b5:	6a 00                	push   $0x0
    50b7:	6a 01                	push   $0x1
    50b9:	e9 f2 00 00 00       	jmp    51b0 <isr_common_stub>

000050be <isr2>:
    50be:	fa                   	cli    
    50bf:	6a 00                	push   $0x0
    50c1:	6a 02                	push   $0x2
    50c3:	e9 e8 00 00 00       	jmp    51b0 <isr_common_stub>

000050c8 <isr3>:
    50c8:	fa                   	cli    
    50c9:	6a 00                	push   $0x0
    50cb:	6a 03                	push   $0x3
    50cd:	e9 de 00 00 00       	jmp    51b0 <isr_common_stub>

000050d2 <isr4>:
    50d2:	fa                   	cli    
    50d3:	6a 00                	push   $0x0
    50d5:	6a 04                	push   $0x4
    50d7:	e9 d4 00 00 00       	jmp    51b0 <isr_common_stub>

000050dc <isr5>:
    50dc:	fa                   	cli    
    50dd:	6a 00                	push   $0x0
    50df:	6a 05                	push   $0x5
    50e1:	e9 ca 00 00 00       	jmp    51b0 <isr_common_stub>

000050e6 <isr6>:
    50e6:	fa                   	cli    
    50e7:	6a 00                	push   $0x0
    50e9:	6a 06                	push   $0x6
    50eb:	e9 c0 00 00 00       	jmp    51b0 <isr_common_stub>

000050f0 <isr7>:
    50f0:	fa                   	cli    
    50f1:	6a 00                	push   $0x0
    50f3:	6a 07                	push   $0x7
    50f5:	e9 b6 00 00 00       	jmp    51b0 <isr_common_stub>

000050fa <isr8>:
    50fa:	fa                   	cli    
    50fb:	6a 08                	push   $0x8
    50fd:	e9 ae 00 00 00       	jmp    51b0 <isr_common_stub>

00005102 <isr9>:
    5102:	fa                   	cli    
    5103:	6a 00                	push   $0x0
    5105:	6a 09                	push   $0x9
    5107:	e9 a4 00 00 00       	jmp    51b0 <isr_common_stub>

0000510c <isr10>:
    510c:	fa                   	cli    
    510d:	6a 0a                	push   $0xa
    510f:	e9 9c 00 00 00       	jmp    51b0 <isr_common_stub>

00005114 <isr11>:
    5114:	fa                   	cli    
    5115:	6a 0b                	push   $0xb
    5117:	e9 94 00 00 00       	jmp    51b0 <isr_common_stub>

0000511c <isr12>:
    511c:	fa                   	cli    
    511d:	6a 0c                	push   $0xc
    511f:	e9 8c 00 00 00       	jmp    51b0 <isr_common_stub>

00005124 <isr13>:
    5124:	fa                   	cli    
    5125:	6a 0d                	push   $0xd
    5127:	e9 84 00 00 00       	jmp    51b0 <isr_common_stub>

0000512c <isr14>:
    512c:	fa                   	cli    
    512d:	6a 0e                	push   $0xe
    512f:	eb 7f                	jmp    51b0 <isr_common_stub>

00005131 <isr15>:
    5131:	fa                   	cli    
    5132:	6a 00                	push   $0x0
    5134:	6a 0f                	push   $0xf
    5136:	eb 78                	jmp    51b0 <isr_common_stub>

00005138 <isr16>:
    5138:	fa                   	cli    
    5139:	6a 00                	push   $0x0
    513b:	6a 10                	push   $0x10
    513d:	eb 71                	jmp    51b0 <isr_common_stub>

0000513f <isr17>:
    513f:	fa                   	cli    
    5140:	6a 11                	push   $0x11
    5142:	eb 6c                	jmp    51b0 <isr_common_stub>

00005144 <isr18>:
    5144:	fa                   	cli    
    5145:	6a 00                	push   $0x0
    5147:	6a 12                	push   $0x12
    5149:	eb 65                	jmp    51b0 <isr_common_stub>

0000514b <isr19>:
    514b:	fa                   	cli    
    514c:	6a 00                	push   $0x0
    514e:	6a 13                	push   $0x13
    5150:	eb 5e                	jmp    51b0 <isr_common_stub>

00005152 <isr20>:
    5152:	fa                   	cli    
    5153:	6a 00                	push   $0x0
    5155:	6a 14                	push   $0x14
    5157:	eb 57                	jmp    51b0 <isr_common_stub>

00005159 <isr21>:
    5159:	fa                   	cli    
    515a:	6a 00                	push   $0x0
    515c:	6a 15                	push   $0x15
    515e:	eb 50                	jmp    51b0 <isr_common_stub>

00005160 <isr22>:
    5160:	fa                   	cli    
    5161:	6a 00                	push   $0x0
    5163:	6a 16                	push   $0x16
    5165:	eb 49                	jmp    51b0 <isr_common_stub>

00005167 <isr23>:
    5167:	fa                   	cli    
    5168:	6a 00                	push   $0x0
    516a:	6a 17                	push   $0x17
    516c:	eb 42                	jmp    51b0 <isr_common_stub>

0000516e <isr24>:
    516e:	fa                   	cli    
    516f:	6a 00                	push   $0x0
    5171:	6a 18                	push   $0x18
    5173:	eb 3b                	jmp    51b0 <isr_common_stub>

00005175 <isr25>:
    5175:	fa                   	cli    
    5176:	6a 00                	push   $0x0
    5178:	6a 19                	push   $0x19
    517a:	eb 34                	jmp    51b0 <isr_common_stub>

0000517c <isr26>:
    517c:	fa                   	cli    
    517d:	6a 00                	push   $0x0
    517f:	6a 1a                	push   $0x1a
    5181:	eb 2d                	jmp    51b0 <isr_common_stub>

00005183 <isr27>:
    5183:	fa                   	cli    
    5184:	6a 00                	push   $0x0
    5186:	6a 1b                	push   $0x1b
    5188:	eb 26                	jmp    51b0 <isr_common_stub>

0000518a <isr28>:
    518a:	fa                   	cli    
    518b:	6a 00                	push   $0x0
    518d:	6a 1c                	push   $0x1c
    518f:	eb 1f                	jmp    51b0 <isr_common_stub>

00005191 <isr29>:
    5191:	fa                   	cli    
    5192:	6a 00                	push   $0x0
    5194:	6a 1d                	push   $0x1d
    5196:	eb 18                	jmp    51b0 <isr_common_stub>

00005198 <isr30>:
    5198:	fa                   	cli    
    5199:	6a 00                	push   $0x0
    519b:	6a 1e                	push   $0x1e
    519d:	eb 11                	jmp    51b0 <isr_common_stub>

0000519f <isr31>:
    519f:	fa                   	cli    
    51a0:	6a 00                	push   $0x0
    51a2:	6a 1f                	push   $0x1f
    51a4:	eb 0a                	jmp    51b0 <isr_common_stub>

000051a6 <isr255>:
    51a6:	fa                   	cli    
    51a7:	6a 00                	push   $0x0
    51a9:	68 ff 00 00 00       	push   $0xff
    51ae:	eb 00                	jmp    51b0 <isr_common_stub>

000051b0 <isr_common_stub>:
    51b0:	60                   	pusha  
    51b1:	66 8c d8             	mov    %ds,%ax
    51b4:	50                   	push   %eax
    51b5:	66 b8 10 00          	mov    $0x10,%ax
    51b9:	8e d8                	mov    %eax,%ds
    51bb:	8e c0                	mov    %eax,%es
    51bd:	8e e0                	mov    %eax,%fs
    51bf:	8e e8                	mov    %eax,%gs
    51c1:	8e d0                	mov    %eax,%ss
    51c3:	54                   	push   %esp
    51c4:	e8 13 25 00 00       	call   76dc <isr_handler>
    51c9:	83 c4 04             	add    $0x4,%esp
    51cc:	5b                   	pop    %ebx
    51cd:	8e db                	mov    %ebx,%ds
    51cf:	8e c3                	mov    %ebx,%es
    51d1:	8e e3                	mov    %ebx,%fs
    51d3:	8e eb                	mov    %ebx,%gs
    51d5:	8e d3                	mov    %ebx,%ss
    51d7:	61                   	popa   
    51d8:	83 c4 08             	add    $0x8,%esp
    51db:	cf                   	iret   

000051dc <irq0>:
    51dc:	fa                   	cli    
    51dd:	6a 00                	push   $0x0
    51df:	6a 20                	push   $0x20
    51e1:	eb 69                	jmp    524c <irq_common_stub>

000051e3 <irq1>:
    51e3:	fa                   	cli    
    51e4:	6a 00                	push   $0x0
    51e6:	6a 21                	push   $0x21
    51e8:	eb 62                	jmp    524c <irq_common_stub>

000051ea <irq2>:
    51ea:	fa                   	cli    
    51eb:	6a 00                	push   $0x0
    51ed:	6a 22                	push   $0x22
    51ef:	eb 5b                	jmp    524c <irq_common_stub>

000051f1 <irq3>:
    51f1:	fa                   	cli    
    51f2:	6a 00                	push   $0x0
    51f4:	6a 23                	push   $0x23
    51f6:	eb 54                	jmp    524c <irq_common_stub>

000051f8 <irq4>:
    51f8:	fa                   	cli    
    51f9:	6a 00                	push   $0x0
    51fb:	6a 24                	push   $0x24
    51fd:	eb 4d                	jmp    524c <irq_common_stub>

000051ff <irq5>:
    51ff:	fa                   	cli    
    5200:	6a 00                	push   $0x0
    5202:	6a 25                	push   $0x25
    5204:	eb 46                	jmp    524c <irq_common_stub>

00005206 <irq6>:
    5206:	fa                   	cli    
    5207:	6a 00                	push   $0x0
    5209:	6a 26                	push   $0x26
    520b:	eb 3f                	jmp    524c <irq_common_stub>

0000520d <irq7>:
    520d:	fa                   	cli    
    520e:	6a 00                	push   $0x0
    5210:	6a 27                	push   $0x27
    5212:	eb 38                	jmp    524c <irq_common_stub>

00005214 <irq8>:
    5214:	fa                   	cli    
    5215:	6a 00                	push   $0x0
    5217:	6a 28                	push   $0x28
    5219:	eb 31                	jmp    524c <irq_common_stub>

0000521b <irq9>:
    521b:	fa                   	cli    
    521c:	6a 00                	push   $0x0
    521e:	6a 29                	push   $0x29
    5220:	eb 2a                	jmp    524c <irq_common_stub>

00005222 <irq10>:
    5222:	fa                   	cli    
    5223:	6a 00                	push   $0x0
    5225:	6a 2a                	push   $0x2a
    5227:	eb 23                	jmp    524c <irq_common_stub>

00005229 <irq11>:
    5229:	fa                   	cli    
    522a:	6a 00                	push   $0x0
    522c:	6a 2b                	push   $0x2b
    522e:	eb 1c                	jmp    524c <irq_common_stub>

00005230 <irq12>:
    5230:	fa                   	cli    
    5231:	6a 00                	push   $0x0
    5233:	6a 2c                	push   $0x2c
    5235:	eb 15                	jmp    524c <irq_common_stub>

00005237 <irq13>:
    5237:	fa                   	cli    
    5238:	6a 00                	push   $0x0
    523a:	6a 2d                	push   $0x2d
    523c:	eb 0e                	jmp    524c <irq_common_stub>

0000523e <irq14>:
    523e:	fa                   	cli    
    523f:	6a 00                	push   $0x0
    5241:	6a 2e                	push   $0x2e
    5243:	eb 07                	jmp    524c <irq_common_stub>

00005245 <irq15>:
    5245:	fa                   	cli    
    5246:	6a 00                	push   $0x0
    5248:	6a 2f                	push   $0x2f
    524a:	eb 00                	jmp    524c <irq_common_stub>

0000524c <irq_common_stub>:
    524c:	60                   	pusha  
    524d:	66 8c d8             	mov    %ds,%ax
    5250:	50                   	push   %eax
    5251:	66 b8 10 00          	mov    $0x10,%ax
    5255:	8e d8                	mov    %eax,%ds
    5257:	8e c0                	mov    %eax,%es
    5259:	8e e0                	mov    %eax,%fs
    525b:	8e e8                	mov    %eax,%gs
    525d:	8e d0                	mov    %eax,%ss
    525f:	54                   	push   %esp
    5260:	e8 d8 24 00 00       	call   773d <irq_handler>
    5265:	83 c4 04             	add    $0x4,%esp
    5268:	5b                   	pop    %ebx
    5269:	8e db                	mov    %ebx,%ds
    526b:	8e c3                	mov    %ebx,%es
    526d:	8e e3                	mov    %ebx,%fs
    526f:	8e eb                	mov    %ebx,%gs
    5271:	8e d3                	mov    %ebx,%ss
    5273:	61                   	popa   
    5274:	83 c4 08             	add    $0x8,%esp
    5277:	cf                   	iret   

00005278 <system_call>:
    5278:	60                   	pusha  
    5279:	06                   	push   %es
    527a:	0f a0                	push   %fs
    527c:	0f a8                	push   %gs
    527e:	89 e6                	mov    %esp,%esi
    5280:	ba 10 00 00 00       	mov    $0x10,%edx
    5285:	8e da                	mov    %edx,%ds
    5287:	8e c2                	mov    %edx,%es
    5289:	ba 17 00 00 00       	mov    $0x17,%edx
    528e:	8e e2                	mov    %edx,%fs
    5290:	fb                   	sti    
    5291:	ff 14 85 80 89 00 00 	call   *0x8980(,%eax,4)
    5298:	89 46 2c             	mov    %eax,0x2c(%esi)
    529b:	fa                   	cli    

0000529c <system_call.2>:
    529c:	b8 a4 99 00 00       	mov    $0x99a4,%eax
    52a1:	83 38 00             	cmpl   $0x0,(%eax)
    52a4:	0f 85 df 13 00 00    	jne    6689 <reschedule>
    52aa:	83 78 04 00          	cmpl   $0x0,0x4(%eax)
    52ae:	0f 84 d5 13 00 00    	je     6689 <reschedule>
    52b4:	0f a9                	pop    %gs
    52b6:	0f a1                	pop    %fs
    52b8:	07                   	pop    %es
    52b9:	1f                   	pop    %ds
    52ba:	61                   	popa   
    52bb:	c3                   	ret    

000052bc <init_keyboard>:
    52bc:	55                   	push   %ebp
    52bd:	89 e5                	mov    %esp,%ebp
    52bf:	53                   	push   %ebx
    52c0:	83 ec 04             	sub    $0x4,%esp
    52c3:	e8 24 26 00 00       	call   78ec <__x86.get_pc_thunk.bx>
    52c8:	81 c3 a8 36 00 00    	add    $0x36a8,%ebx
    52ce:	83 ec 0c             	sub    $0xc,%esp
    52d1:	8d 83 28 fd ff ff    	lea    -0x2d8(%ebx),%eax
    52d7:	50                   	push   %eax
    52d8:	e8 f9 02 00 00       	call   55d6 <printk>
    52dd:	83 c4 10             	add    $0x10,%esp
    52e0:	c7 83 58 10 00 00 00 	movl   $0x0,0x1058(%ebx)
    52e7:	00 00 00 
    52ea:	8d 83 5c 10 00 00    	lea    0x105c(%ebx),%eax
    52f0:	89 83 54 10 00 00    	mov    %eax,0x1054(%ebx)
    52f6:	8b 83 54 10 00 00    	mov    0x1054(%ebx),%eax
    52fc:	89 83 50 10 00 00    	mov    %eax,0x1050(%ebx)
    5302:	83 ec 08             	sub    $0x8,%esp
    5305:	8d 83 ac c9 ff ff    	lea    -0x3654(%ebx),%eax
    530b:	50                   	push   %eax
    530c:	6a 21                	push   $0x21
    530e:	e8 b6 24 00 00       	call   77c9 <register_interrupt_handler>
    5313:	83 c4 10             	add    $0x10,%esp
    5316:	90                   	nop
    5317:	8b 5d fc             	mov    -0x4(%ebp),%ebx
    531a:	c9                   	leave  
    531b:	c3                   	ret    

0000531c <keyboard_handler>:
    531c:	55                   	push   %ebp
    531d:	89 e5                	mov    %esp,%ebp
    531f:	53                   	push   %ebx
    5320:	83 ec 14             	sub    $0x14,%esp
    5323:	e8 c4 25 00 00       	call   78ec <__x86.get_pc_thunk.bx>
    5328:	81 c3 48 36 00 00    	add    $0x3648,%ebx
    532e:	83 ec 0c             	sub    $0xc,%esp
    5331:	6a 60                	push   $0x60
    5333:	e8 fb 1d 00 00       	call   7133 <inb>
    5338:	83 c4 10             	add    $0x10,%esp
    533b:	88 45 f7             	mov    %al,-0x9(%ebp)
    533e:	8b 83 58 10 00 00    	mov    0x1058(%ebx),%eax
    5344:	83 f8 1f             	cmp    $0x1f,%eax
    5347:	7f 37                	jg     5380 <keyboard_handler+0x64>
    5349:	8b 83 50 10 00 00    	mov    0x1050(%ebx),%eax
    534f:	0f b6 55 f7          	movzbl -0x9(%ebp),%edx
    5353:	88 10                	mov    %dl,(%eax)
    5355:	8b 83 50 10 00 00    	mov    0x1050(%ebx),%eax
    535b:	83 c0 01             	add    $0x1,%eax
    535e:	89 83 50 10 00 00    	mov    %eax,0x1050(%ebx)
    5364:	8b 93 50 10 00 00    	mov    0x1050(%ebx),%edx
    536a:	8d 83 7c 10 00 00    	lea    0x107c(%ebx),%eax
    5370:	39 c2                	cmp    %eax,%edx
    5372:	75 0c                	jne    5380 <keyboard_handler+0x64>
    5374:	8d 83 5c 10 00 00    	lea    0x105c(%ebx),%eax
    537a:	89 83 50 10 00 00    	mov    %eax,0x1050(%ebx)
    5380:	8b 83 58 10 00 00    	mov    0x1058(%ebx),%eax
    5386:	83 c0 01             	add    $0x1,%eax
    5389:	89 83 58 10 00 00    	mov    %eax,0x1058(%ebx)
    538f:	90                   	nop
    5390:	8b 5d fc             	mov    -0x4(%ebp),%ebx
    5393:	c9                   	leave  
    5394:	c3                   	ret    

00005395 <keyboard_read>:
    5395:	55                   	push   %ebp
    5396:	89 e5                	mov    %esp,%ebp
    5398:	53                   	push   %ebx
    5399:	83 ec 14             	sub    $0x14,%esp
    539c:	e8 47 25 00 00       	call   78e8 <__x86.get_pc_thunk.ax>
    53a1:	05 cf 35 00 00       	add    $0x35cf,%eax
    53a6:	fa                   	cli    
    53a7:	8b 90 58 10 00 00    	mov    0x1058(%eax),%edx
    53ad:	85 d2                	test   %edx,%edx
    53af:	7e 7b                	jle    542c <keyboard_read+0x97>
    53b1:	8b 90 54 10 00 00    	mov    0x1054(%eax),%edx
    53b7:	0f b6 12             	movzbl (%edx),%edx
    53ba:	88 55 f7             	mov    %dl,-0x9(%ebp)
    53bd:	8b 90 54 10 00 00    	mov    0x1054(%eax),%edx
    53c3:	83 c2 01             	add    $0x1,%edx
    53c6:	89 90 54 10 00 00    	mov    %edx,0x1054(%eax)
    53cc:	8b 90 54 10 00 00    	mov    0x1054(%eax),%edx
    53d2:	83 c2 01             	add    $0x1,%edx
    53d5:	89 90 54 10 00 00    	mov    %edx,0x1054(%eax)
    53db:	8b 88 54 10 00 00    	mov    0x1054(%eax),%ecx
    53e1:	8d 90 7c 10 00 00    	lea    0x107c(%eax),%edx
    53e7:	39 d1                	cmp    %edx,%ecx
    53e9:	75 0c                	jne    53f7 <keyboard_read+0x62>
    53eb:	8d 90 5c 10 00 00    	lea    0x105c(%eax),%edx
    53f1:	89 90 54 10 00 00    	mov    %edx,0x1054(%eax)
    53f7:	8b 90 58 10 00 00    	mov    0x1058(%eax),%edx
    53fd:	83 ea 02             	sub    $0x2,%edx
    5400:	89 90 58 10 00 00    	mov    %edx,0x1058(%eax)
    5406:	0f b6 4d f7          	movzbl -0x9(%ebp),%ecx
    540a:	89 ca                	mov    %ecx,%edx
    540c:	01 d2                	add    %edx,%edx
    540e:	01 ca                	add    %ecx,%edx
    5410:	8b 94 90 10 f7 ff ff 	mov    -0x8f0(%eax,%edx,4),%edx
    5417:	83 ec 08             	sub    $0x8,%esp
    541a:	52                   	push   %edx
    541b:	8d 90 59 fd ff ff    	lea    -0x2a7(%eax),%edx
    5421:	52                   	push   %edx
    5422:	89 c3                	mov    %eax,%ebx
    5424:	e8 ad 01 00 00       	call   55d6 <printk>
    5429:	83 c4 10             	add    $0x10,%esp
    542c:	fb                   	sti    
    542d:	90                   	nop
    542e:	8b 5d fc             	mov    -0x4(%ebp),%ebx
    5431:	c9                   	leave  
    5432:	c3                   	ret    

00005433 <timer_callback>:
    5433:	55                   	push   %ebp
    5434:	89 e5                	mov    %esp,%ebp
    5436:	e8 ad 24 00 00       	call   78e8 <__x86.get_pc_thunk.ax>
    543b:	05 35 35 00 00       	add    $0x3535,%eax
    5440:	8b 90 7c 10 00 00    	mov    0x107c(%eax),%edx
    5446:	83 c2 01             	add    $0x1,%edx
    5449:	89 90 7c 10 00 00    	mov    %edx,0x107c(%eax)
    544f:	90                   	nop
    5450:	5d                   	pop    %ebp
    5451:	c3                   	ret    

00005452 <timer_interrupt>:
    5452:	55                   	push   %ebp
    5453:	89 e5                	mov    %esp,%ebp
    5455:	83 ec 10             	sub    $0x10,%esp
    5458:	e8 8b 24 00 00       	call   78e8 <__x86.get_pc_thunk.ax>
    545d:	05 13 35 00 00       	add    $0x3513,%eax
    5462:	c7 45 fc 00 00 00 00 	movl   $0x0,-0x4(%ebp)
    5469:	83 45 fc 01          	addl   $0x1,-0x4(%ebp)
    546d:	90                   	nop
    546e:	c9                   	leave  
    546f:	c3                   	ret    

00005470 <init_timer>:
    5470:	55                   	push   %ebp
    5471:	89 e5                	mov    %esp,%ebp
    5473:	53                   	push   %ebx
    5474:	83 ec 14             	sub    $0x14,%esp
    5477:	e8 70 24 00 00       	call   78ec <__x86.get_pc_thunk.bx>
    547c:	81 c3 f4 34 00 00    	add    $0x34f4,%ebx
    5482:	83 ec 0c             	sub    $0xc,%esp
    5485:	8d 83 5c fd ff ff    	lea    -0x2a4(%ebx),%eax
    548b:	50                   	push   %eax
    548c:	e8 45 01 00 00       	call   55d6 <printk>
    5491:	83 c4 10             	add    $0x10,%esp
    5494:	c6 45 f7 00          	movb   $0x0,-0x9(%ebp)
    5498:	c6 45 f6 00          	movb   $0x0,-0xa(%ebp)
    549c:	c7 45 f0 00 00 00 00 	movl   $0x0,-0x10(%ebp)
    54a3:	83 ec 08             	sub    $0x8,%esp
    54a6:	8d 83 e2 ca ff ff    	lea    -0x351e(%ebx),%eax
    54ac:	50                   	push   %eax
    54ad:	6a 20                	push   $0x20
    54af:	e8 15 23 00 00       	call   77c9 <register_interrupt_handler>
    54b4:	83 c4 10             	add    $0x10,%esp
    54b7:	83 ec 08             	sub    $0x8,%esp
    54ba:	6a 36                	push   $0x36
    54bc:	6a 43                	push   $0x43
    54be:	e8 46 1c 00 00       	call   7109 <outb>
    54c3:	83 c4 10             	add    $0x10,%esp
    54c6:	b8 dc 34 12 00       	mov    $0x1234dc,%eax
    54cb:	ba 00 00 00 00       	mov    $0x0,%edx
    54d0:	f7 75 08             	divl   0x8(%ebp)
    54d3:	89 45 f0             	mov    %eax,-0x10(%ebp)
    54d6:	8b 45 f0             	mov    -0x10(%ebp),%eax
    54d9:	88 45 f7             	mov    %al,-0x9(%ebp)
    54dc:	8b 45 f0             	mov    -0x10(%ebp),%eax
    54df:	c1 e8 08             	shr    $0x8,%eax
    54e2:	88 45 f6             	mov    %al,-0xa(%ebp)
    54e5:	0f b6 45 f7          	movzbl -0x9(%ebp),%eax
    54e9:	83 ec 08             	sub    $0x8,%esp
    54ec:	50                   	push   %eax
    54ed:	6a 40                	push   $0x40
    54ef:	e8 15 1c 00 00       	call   7109 <outb>
    54f4:	83 c4 10             	add    $0x10,%esp
    54f7:	0f b6 45 f6          	movzbl -0xa(%ebp),%eax
    54fb:	83 ec 08             	sub    $0x8,%esp
    54fe:	50                   	push   %eax
    54ff:	6a 40                	push   $0x40
    5501:	e8 03 1c 00 00       	call   7109 <outb>
    5506:	83 c4 10             	add    $0x10,%esp
    5509:	e8 fb 1b 00 00       	call   7109 <outb>
    550e:	90                   	nop
    550f:	8b 5d fc             	mov    -0x4(%ebp),%ebx
    5512:	c9                   	leave  
    5513:	c3                   	ret    

00005514 <sys_setup>:
    5514:	55                   	push   %ebp
    5515:	89 e5                	mov    %esp,%ebp
    5517:	e8 cc 23 00 00       	call   78e8 <__x86.get_pc_thunk.ax>
    551c:	05 54 34 00 00       	add    $0x3454,%eax
    5521:	b8 00 00 00 00       	mov    $0x0,%eax
    5526:	5d                   	pop    %ebp
    5527:	c3                   	ret    

00005528 <sys_exit>:
    5528:	55                   	push   %ebp
    5529:	89 e5                	mov    %esp,%ebp
    552b:	e8 b8 23 00 00       	call   78e8 <__x86.get_pc_thunk.ax>
    5530:	05 40 34 00 00       	add    $0x3440,%eax
    5535:	b8 00 00 00 00       	mov    $0x0,%eax
    553a:	5d                   	pop    %ebp
    553b:	c3                   	ret    

0000553c <sys_fork>:
    553c:	55                   	push   %ebp
    553d:	89 e5                	mov    %esp,%ebp
    553f:	e8 a4 23 00 00       	call   78e8 <__x86.get_pc_thunk.ax>
    5544:	05 2c 34 00 00       	add    $0x342c,%eax
    5549:	b8 00 00 00 00       	mov    $0x0,%eax
    554e:	5d                   	pop    %ebp
    554f:	c3                   	ret    

00005550 <sys_read>:
    5550:	55                   	push   %ebp
    5551:	89 e5                	mov    %esp,%ebp
    5553:	e8 90 23 00 00       	call   78e8 <__x86.get_pc_thunk.ax>
    5558:	05 18 34 00 00       	add    $0x3418,%eax
    555d:	b8 00 00 00 00       	mov    $0x0,%eax
    5562:	5d                   	pop    %ebp
    5563:	c3                   	ret    

00005564 <sys_write>:
    5564:	55                   	push   %ebp
    5565:	89 e5                	mov    %esp,%ebp
    5567:	e8 7c 23 00 00       	call   78e8 <__x86.get_pc_thunk.ax>
    556c:	05 04 34 00 00       	add    $0x3404,%eax
    5571:	b8 00 00 00 00       	mov    $0x0,%eax
    5576:	5d                   	pop    %ebp
    5577:	c3                   	ret    

00005578 <sys_open>:
    5578:	55                   	push   %ebp
    5579:	89 e5                	mov    %esp,%ebp
    557b:	e8 68 23 00 00       	call   78e8 <__x86.get_pc_thunk.ax>
    5580:	05 f0 33 00 00       	add    $0x33f0,%eax
    5585:	b8 00 00 00 00       	mov    $0x0,%eax
    558a:	5d                   	pop    %ebp
    558b:	c3                   	ret    

0000558c <sys_close>:
    558c:	55                   	push   %ebp
    558d:	89 e5                	mov    %esp,%ebp
    558f:	e8 54 23 00 00       	call   78e8 <__x86.get_pc_thunk.ax>
    5594:	05 dc 33 00 00       	add    $0x33dc,%eax
    5599:	b8 00 00 00 00       	mov    $0x0,%eax
    559e:	5d                   	pop    %ebp
    559f:	c3                   	ret    

000055a0 <strlen>:
    55a0:	55                   	push   %ebp
    55a1:	89 e5                	mov    %esp,%ebp
    55a3:	83 ec 10             	sub    $0x10,%esp
    55a6:	e8 3d 23 00 00       	call   78e8 <__x86.get_pc_thunk.ax>
    55ab:	05 c5 33 00 00       	add    $0x33c5,%eax
    55b0:	8b 45 08             	mov    0x8(%ebp),%eax
    55b3:	89 45 fc             	mov    %eax,-0x4(%ebp)
    55b6:	90                   	nop
    55b7:	8b 45 fc             	mov    -0x4(%ebp),%eax
    55ba:	8d 50 01             	lea    0x1(%eax),%edx
    55bd:	89 55 fc             	mov    %edx,-0x4(%ebp)
    55c0:	0f b6 00             	movzbl (%eax),%eax
    55c3:	84 c0                	test   %al,%al
    55c5:	75 f0                	jne    55b7 <strlen+0x17>
    55c7:	8b 55 fc             	mov    -0x4(%ebp),%edx
    55ca:	8b 45 08             	mov    0x8(%ebp),%eax
    55cd:	29 c2                	sub    %eax,%edx
    55cf:	89 d0                	mov    %edx,%eax
    55d1:	83 e8 01             	sub    $0x1,%eax
    55d4:	c9                   	leave  
    55d5:	c3                   	ret    

000055d6 <printk>:
    55d6:	55                   	push   %ebp
    55d7:	89 e5                	mov    %esp,%ebp
    55d9:	53                   	push   %ebx
    55da:	83 ec 14             	sub    $0x14,%esp
    55dd:	e8 0a 23 00 00       	call   78ec <__x86.get_pc_thunk.bx>
    55e2:	81 c3 8e 33 00 00    	add    $0x338e,%ebx
    55e8:	8d 45 0c             	lea    0xc(%ebp),%eax
    55eb:	89 45 f0             	mov    %eax,-0x10(%ebp)
    55ee:	8b 45 f0             	mov    -0x10(%ebp),%eax
    55f1:	83 ec 04             	sub    $0x4,%esp
    55f4:	50                   	push   %eax
    55f5:	ff 75 08             	pushl  0x8(%ebp)
    55f8:	8d 83 90 10 00 00    	lea    0x1090(%ebx),%eax
    55fe:	50                   	push   %eax
    55ff:	e8 c7 02 00 00       	call   58cb <vsprintf>
    5604:	83 c4 10             	add    $0x10,%esp
    5607:	89 45 f4             	mov    %eax,-0xc(%ebp)
    560a:	8d 93 90 10 00 00    	lea    0x1090(%ebx),%edx
    5610:	8b 45 f4             	mov    -0xc(%ebp),%eax
    5613:	01 d0                	add    %edx,%eax
    5615:	c6 00 00             	movb   $0x0,(%eax)
    5618:	83 ec 04             	sub    $0x4,%esp
    561b:	6a 07                	push   $0x7
    561d:	6a 00                	push   $0x0
    561f:	8d 83 90 10 00 00    	lea    0x1090(%ebx),%eax
    5625:	50                   	push   %eax
    5626:	e8 4b 1e 00 00       	call   7476 <console_puts>
    562b:	83 c4 10             	add    $0x10,%esp
    562e:	90                   	nop
    562f:	8b 5d fc             	mov    -0x4(%ebp),%ebx
    5632:	c9                   	leave  
    5633:	c3                   	ret    

00005634 <skip_atoi>:
    5634:	55                   	push   %ebp
    5635:	89 e5                	mov    %esp,%ebp
    5637:	53                   	push   %ebx
    5638:	83 ec 10             	sub    $0x10,%esp
    563b:	e8 a8 22 00 00       	call   78e8 <__x86.get_pc_thunk.ax>
    5640:	05 30 33 00 00       	add    $0x3330,%eax
    5645:	c7 45 f8 00 00 00 00 	movl   $0x0,-0x8(%ebp)
    564c:	eb 29                	jmp    5677 <skip_atoi+0x43>
    564e:	8b 55 f8             	mov    -0x8(%ebp),%edx
    5651:	89 d0                	mov    %edx,%eax
    5653:	c1 e0 02             	shl    $0x2,%eax
    5656:	01 d0                	add    %edx,%eax
    5658:	01 c0                	add    %eax,%eax
    565a:	89 c3                	mov    %eax,%ebx
    565c:	8b 45 08             	mov    0x8(%ebp),%eax
    565f:	8b 00                	mov    (%eax),%eax
    5661:	8d 48 01             	lea    0x1(%eax),%ecx
    5664:	8b 55 08             	mov    0x8(%ebp),%edx
    5667:	89 0a                	mov    %ecx,(%edx)
    5669:	0f b6 00             	movzbl (%eax),%eax
    566c:	0f be c0             	movsbl %al,%eax
    566f:	01 d8                	add    %ebx,%eax
    5671:	83 e8 30             	sub    $0x30,%eax
    5674:	89 45 f8             	mov    %eax,-0x8(%ebp)
    5677:	8b 45 08             	mov    0x8(%ebp),%eax
    567a:	8b 00                	mov    (%eax),%eax
    567c:	0f b6 00             	movzbl (%eax),%eax
    567f:	3c 2f                	cmp    $0x2f,%al
    5681:	7e 0c                	jle    568f <skip_atoi+0x5b>
    5683:	8b 45 08             	mov    0x8(%ebp),%eax
    5686:	8b 00                	mov    (%eax),%eax
    5688:	0f b6 00             	movzbl (%eax),%eax
    568b:	3c 39                	cmp    $0x39,%al
    568d:	7e bf                	jle    564e <skip_atoi+0x1a>
    568f:	8b 45 f8             	mov    -0x8(%ebp),%eax
    5692:	83 c4 10             	add    $0x10,%esp
    5695:	5b                   	pop    %ebx
    5696:	5d                   	pop    %ebp
    5697:	c3                   	ret    

00005698 <number>:
    5698:	55                   	push   %ebp
    5699:	89 e5                	mov    %esp,%ebp
    569b:	83 ec 40             	sub    $0x40,%esp
    569e:	e8 45 22 00 00       	call   78e8 <__x86.get_pc_thunk.ax>
    56a3:	05 cd 32 00 00       	add    $0x32cd,%eax
    56a8:	8d 90 88 fd ff ff    	lea    -0x278(%eax),%edx
    56ae:	89 55 f8             	mov    %edx,-0x8(%ebp)
    56b1:	8b 55 1c             	mov    0x1c(%ebp),%edx
    56b4:	83 e2 40             	and    $0x40,%edx
    56b7:	85 d2                	test   %edx,%edx
    56b9:	74 09                	je     56c4 <number+0x2c>
    56bb:	8d 80 b0 fd ff ff    	lea    -0x250(%eax),%eax
    56c1:	89 45 f8             	mov    %eax,-0x8(%ebp)
    56c4:	8b 45 1c             	mov    0x1c(%ebp),%eax
    56c7:	83 e0 10             	and    $0x10,%eax
    56ca:	85 c0                	test   %eax,%eax
    56cc:	74 04                	je     56d2 <number+0x3a>
    56ce:	83 65 1c fe          	andl   $0xfffffffe,0x1c(%ebp)
    56d2:	83 7d 10 01          	cmpl   $0x1,0x10(%ebp)
    56d6:	7e 06                	jle    56de <number+0x46>
    56d8:	83 7d 10 24          	cmpl   $0x24,0x10(%ebp)
    56dc:	7e 0a                	jle    56e8 <number+0x50>
    56de:	b8 00 00 00 00       	mov    $0x0,%eax
    56e3:	e9 e1 01 00 00       	jmp    58c9 <number+0x231>
    56e8:	8b 45 1c             	mov    0x1c(%ebp),%eax
    56eb:	83 e0 01             	and    $0x1,%eax
    56ee:	85 c0                	test   %eax,%eax
    56f0:	74 07                	je     56f9 <number+0x61>
    56f2:	b8 30 00 00 00       	mov    $0x30,%eax
    56f7:	eb 05                	jmp    56fe <number+0x66>
    56f9:	b8 20 00 00 00       	mov    $0x20,%eax
    56fe:	88 45 f3             	mov    %al,-0xd(%ebp)
    5701:	8b 45 1c             	mov    0x1c(%ebp),%eax
    5704:	83 e0 02             	and    $0x2,%eax
    5707:	85 c0                	test   %eax,%eax
    5709:	74 0f                	je     571a <number+0x82>
    570b:	83 7d 0c 00          	cmpl   $0x0,0xc(%ebp)
    570f:	79 09                	jns    571a <number+0x82>
    5711:	c6 45 ff 2d          	movb   $0x2d,-0x1(%ebp)
    5715:	f7 5d 0c             	negl   0xc(%ebp)
    5718:	eb 1d                	jmp    5737 <number+0x9f>
    571a:	8b 45 1c             	mov    0x1c(%ebp),%eax
    571d:	83 e0 04             	and    $0x4,%eax
    5720:	85 c0                	test   %eax,%eax
    5722:	75 0b                	jne    572f <number+0x97>
    5724:	8b 45 1c             	mov    0x1c(%ebp),%eax
    5727:	c1 e0 02             	shl    $0x2,%eax
    572a:	83 e0 20             	and    $0x20,%eax
    572d:	eb 05                	jmp    5734 <number+0x9c>
    572f:	b8 2b 00 00 00       	mov    $0x2b,%eax
    5734:	88 45 ff             	mov    %al,-0x1(%ebp)
    5737:	80 7d ff 00          	cmpb   $0x0,-0x1(%ebp)
    573b:	74 04                	je     5741 <number+0xa9>
    573d:	83 6d 14 01          	subl   $0x1,0x14(%ebp)
    5741:	8b 45 1c             	mov    0x1c(%ebp),%eax
    5744:	83 e0 20             	and    $0x20,%eax
    5747:	85 c0                	test   %eax,%eax
    5749:	74 16                	je     5761 <number+0xc9>
    574b:	83 7d 10 10          	cmpl   $0x10,0x10(%ebp)
    574f:	75 06                	jne    5757 <number+0xbf>
    5751:	83 6d 14 02          	subl   $0x2,0x14(%ebp)
    5755:	eb 0a                	jmp    5761 <number+0xc9>
    5757:	83 7d 10 08          	cmpl   $0x8,0x10(%ebp)
    575b:	75 04                	jne    5761 <number+0xc9>
    575d:	83 6d 14 01          	subl   $0x1,0x14(%ebp)
    5761:	c7 45 f4 00 00 00 00 	movl   $0x0,-0xc(%ebp)
    5768:	83 7d 0c 00          	cmpl   $0x0,0xc(%ebp)
    576c:	75 3e                	jne    57ac <number+0x114>
    576e:	8b 45 f4             	mov    -0xc(%ebp),%eax
    5771:	8d 50 01             	lea    0x1(%eax),%edx
    5774:	89 55 f4             	mov    %edx,-0xc(%ebp)
    5777:	c6 44 05 c8 30       	movb   $0x30,-0x38(%ebp,%eax,1)
    577c:	eb 34                	jmp    57b2 <number+0x11a>
    577e:	8b 45 0c             	mov    0xc(%ebp),%eax
    5781:	ba 00 00 00 00       	mov    $0x0,%edx
    5786:	8b 4d 10             	mov    0x10(%ebp),%ecx
    5789:	f7 f1                	div    %ecx
    578b:	89 45 0c             	mov    %eax,0xc(%ebp)
    578e:	89 55 ec             	mov    %edx,-0x14(%ebp)
    5791:	8b 45 ec             	mov    -0x14(%ebp),%eax
    5794:	89 c2                	mov    %eax,%edx
    5796:	8b 45 f8             	mov    -0x8(%ebp),%eax
    5799:	8d 0c 02             	lea    (%edx,%eax,1),%ecx
    579c:	8b 45 f4             	mov    -0xc(%ebp),%eax
    579f:	8d 50 01             	lea    0x1(%eax),%edx
    57a2:	89 55 f4             	mov    %edx,-0xc(%ebp)
    57a5:	0f b6 11             	movzbl (%ecx),%edx
    57a8:	88 54 05 c8          	mov    %dl,-0x38(%ebp,%eax,1)
    57ac:	83 7d 0c 00          	cmpl   $0x0,0xc(%ebp)
    57b0:	75 cc                	jne    577e <number+0xe6>
    57b2:	8b 45 f4             	mov    -0xc(%ebp),%eax
    57b5:	3b 45 18             	cmp    0x18(%ebp),%eax
    57b8:	7e 06                	jle    57c0 <number+0x128>
    57ba:	8b 45 f4             	mov    -0xc(%ebp),%eax
    57bd:	89 45 18             	mov    %eax,0x18(%ebp)
    57c0:	8b 45 18             	mov    0x18(%ebp),%eax
    57c3:	29 45 14             	sub    %eax,0x14(%ebp)
    57c6:	8b 45 1c             	mov    0x1c(%ebp),%eax
    57c9:	83 e0 11             	and    $0x11,%eax
    57cc:	85 c0                	test   %eax,%eax
    57ce:	75 1b                	jne    57eb <number+0x153>
    57d0:	eb 0c                	jmp    57de <number+0x146>
    57d2:	8b 45 08             	mov    0x8(%ebp),%eax
    57d5:	8d 50 01             	lea    0x1(%eax),%edx
    57d8:	89 55 08             	mov    %edx,0x8(%ebp)
    57db:	c6 00 20             	movb   $0x20,(%eax)
    57de:	8b 45 14             	mov    0x14(%ebp),%eax
    57e1:	8d 50 ff             	lea    -0x1(%eax),%edx
    57e4:	89 55 14             	mov    %edx,0x14(%ebp)
    57e7:	85 c0                	test   %eax,%eax
    57e9:	7f e7                	jg     57d2 <number+0x13a>
    57eb:	80 7d ff 00          	cmpb   $0x0,-0x1(%ebp)
    57ef:	74 0f                	je     5800 <number+0x168>
    57f1:	8b 45 08             	mov    0x8(%ebp),%eax
    57f4:	8d 50 01             	lea    0x1(%eax),%edx
    57f7:	89 55 08             	mov    %edx,0x8(%ebp)
    57fa:	0f b6 55 ff          	movzbl -0x1(%ebp),%edx
    57fe:	88 10                	mov    %dl,(%eax)
    5800:	8b 45 1c             	mov    0x1c(%ebp),%eax
    5803:	83 e0 20             	and    $0x20,%eax
    5806:	85 c0                	test   %eax,%eax
    5808:	74 38                	je     5842 <number+0x1aa>
    580a:	83 7d 10 08          	cmpl   $0x8,0x10(%ebp)
    580e:	75 0e                	jne    581e <number+0x186>
    5810:	8b 45 08             	mov    0x8(%ebp),%eax
    5813:	8d 50 01             	lea    0x1(%eax),%edx
    5816:	89 55 08             	mov    %edx,0x8(%ebp)
    5819:	c6 00 30             	movb   $0x30,(%eax)
    581c:	eb 24                	jmp    5842 <number+0x1aa>
    581e:	83 7d 10 10          	cmpl   $0x10,0x10(%ebp)
    5822:	75 1e                	jne    5842 <number+0x1aa>
    5824:	8b 45 08             	mov    0x8(%ebp),%eax
    5827:	8d 50 01             	lea    0x1(%eax),%edx
    582a:	89 55 08             	mov    %edx,0x8(%ebp)
    582d:	c6 00 30             	movb   $0x30,(%eax)
    5830:	8b 45 08             	mov    0x8(%ebp),%eax
    5833:	8d 50 01             	lea    0x1(%eax),%edx
    5836:	89 55 08             	mov    %edx,0x8(%ebp)
    5839:	8b 55 f8             	mov    -0x8(%ebp),%edx
    583c:	0f b6 52 21          	movzbl 0x21(%edx),%edx
    5840:	88 10                	mov    %dl,(%eax)
    5842:	8b 45 1c             	mov    0x1c(%ebp),%eax
    5845:	83 e0 10             	and    $0x10,%eax
    5848:	85 c0                	test   %eax,%eax
    584a:	75 2c                	jne    5878 <number+0x1e0>
    584c:	eb 0f                	jmp    585d <number+0x1c5>
    584e:	8b 45 08             	mov    0x8(%ebp),%eax
    5851:	8d 50 01             	lea    0x1(%eax),%edx
    5854:	89 55 08             	mov    %edx,0x8(%ebp)
    5857:	0f b6 55 f3          	movzbl -0xd(%ebp),%edx
    585b:	88 10                	mov    %dl,(%eax)
    585d:	8b 45 14             	mov    0x14(%ebp),%eax
    5860:	8d 50 ff             	lea    -0x1(%eax),%edx
    5863:	89 55 14             	mov    %edx,0x14(%ebp)
    5866:	85 c0                	test   %eax,%eax
    5868:	7f e4                	jg     584e <number+0x1b6>
    586a:	eb 0c                	jmp    5878 <number+0x1e0>
    586c:	8b 45 08             	mov    0x8(%ebp),%eax
    586f:	8d 50 01             	lea    0x1(%eax),%edx
    5872:	89 55 08             	mov    %edx,0x8(%ebp)
    5875:	c6 00 30             	movb   $0x30,(%eax)
    5878:	8b 45 18             	mov    0x18(%ebp),%eax
    587b:	8d 50 ff             	lea    -0x1(%eax),%edx
    587e:	89 55 18             	mov    %edx,0x18(%ebp)
    5881:	39 45 f4             	cmp    %eax,-0xc(%ebp)
    5884:	7c e6                	jl     586c <number+0x1d4>
    5886:	eb 16                	jmp    589e <number+0x206>
    5888:	8b 45 08             	mov    0x8(%ebp),%eax
    588b:	8d 50 01             	lea    0x1(%eax),%edx
    588e:	89 55 08             	mov    %edx,0x8(%ebp)
    5891:	8d 4d c8             	lea    -0x38(%ebp),%ecx
    5894:	8b 55 f4             	mov    -0xc(%ebp),%edx
    5897:	01 ca                	add    %ecx,%edx
    5899:	0f b6 12             	movzbl (%edx),%edx
    589c:	88 10                	mov    %dl,(%eax)
    589e:	8b 45 f4             	mov    -0xc(%ebp),%eax
    58a1:	8d 50 ff             	lea    -0x1(%eax),%edx
    58a4:	89 55 f4             	mov    %edx,-0xc(%ebp)
    58a7:	85 c0                	test   %eax,%eax
    58a9:	7f dd                	jg     5888 <number+0x1f0>
    58ab:	eb 0c                	jmp    58b9 <number+0x221>
    58ad:	8b 45 08             	mov    0x8(%ebp),%eax
    58b0:	8d 50 01             	lea    0x1(%eax),%edx
    58b3:	89 55 08             	mov    %edx,0x8(%ebp)
    58b6:	c6 00 20             	movb   $0x20,(%eax)
    58b9:	8b 45 14             	mov    0x14(%ebp),%eax
    58bc:	8d 50 ff             	lea    -0x1(%eax),%edx
    58bf:	89 55 14             	mov    %edx,0x14(%ebp)
    58c2:	85 c0                	test   %eax,%eax
    58c4:	7f e7                	jg     58ad <number+0x215>
    58c6:	8b 45 08             	mov    0x8(%ebp),%eax
    58c9:	c9                   	leave  
    58ca:	c3                   	ret    

000058cb <vsprintf>:
    58cb:	55                   	push   %ebp
    58cc:	89 e5                	mov    %esp,%ebp
    58ce:	53                   	push   %ebx
    58cf:	83 ec 20             	sub    $0x20,%esp
    58d2:	e8 15 20 00 00       	call   78ec <__x86.get_pc_thunk.bx>
    58d7:	81 c3 99 30 00 00    	add    $0x3099,%ebx
    58dd:	8b 45 08             	mov    0x8(%ebp),%eax
    58e0:	89 45 f0             	mov    %eax,-0x10(%ebp)
    58e3:	e9 b7 03 00 00       	jmp    5c9f <.L65+0x46>
    58e8:	8b 45 0c             	mov    0xc(%ebp),%eax
    58eb:	0f b6 00             	movzbl (%eax),%eax
    58ee:	3c 25                	cmp    $0x25,%al
    58f0:	74 14                	je     5906 <vsprintf+0x3b>
    58f2:	8b 45 0c             	mov    0xc(%ebp),%eax
    58f5:	0f b6 10             	movzbl (%eax),%edx
    58f8:	8b 45 f0             	mov    -0x10(%ebp),%eax
    58fb:	88 10                	mov    %dl,(%eax)
    58fd:	83 45 f0 01          	addl   $0x1,-0x10(%ebp)
    5901:	e9 90 03 00 00       	jmp    5c96 <.L65+0x3d>
    5906:	c7 45 e8 00 00 00 00 	movl   $0x0,-0x18(%ebp)
    590d:	8b 45 0c             	mov    0xc(%ebp),%eax
    5910:	83 c0 01             	add    $0x1,%eax
    5913:	89 45 0c             	mov    %eax,0xc(%ebp)
    5916:	8b 45 0c             	mov    0xc(%ebp),%eax
    5919:	0f b6 00             	movzbl (%eax),%eax
    591c:	0f be c0             	movsbl %al,%eax
    591f:	83 e8 20             	sub    $0x20,%eax
    5922:	83 f8 10             	cmp    $0x10,%eax
    5925:	77 2c                	ja     5953 <.L51>
    5927:	c1 e0 02             	shl    $0x2,%eax
    592a:	8b 84 18 d8 fd ff ff 	mov    -0x228(%eax,%ebx,1),%eax
    5931:	01 d8                	add    %ebx,%eax
    5933:	ff e0                	jmp    *%eax

00005935 <.L56>:
    5935:	83 4d e8 10          	orl    $0x10,-0x18(%ebp)
    5939:	eb d2                	jmp    590d <vsprintf+0x42>

0000593b <.L55>:
    593b:	83 4d e8 04          	orl    $0x4,-0x18(%ebp)
    593f:	eb cc                	jmp    590d <vsprintf+0x42>

00005941 <.L52>:
    5941:	83 4d e8 08          	orl    $0x8,-0x18(%ebp)
    5945:	eb c6                	jmp    590d <vsprintf+0x42>

00005947 <.L54>:
    5947:	83 4d e8 20          	orl    $0x20,-0x18(%ebp)
    594b:	eb c0                	jmp    590d <vsprintf+0x42>

0000594d <.L57>:
    594d:	83 4d e8 01          	orl    $0x1,-0x18(%ebp)
    5951:	eb ba                	jmp    590d <vsprintf+0x42>

00005953 <.L51>:
    5953:	c7 45 e4 ff ff ff ff 	movl   $0xffffffff,-0x1c(%ebp)
    595a:	8b 45 0c             	mov    0xc(%ebp),%eax
    595d:	0f b6 00             	movzbl (%eax),%eax
    5960:	3c 2f                	cmp    $0x2f,%al
    5962:	7e 1b                	jle    597f <.L51+0x2c>
    5964:	8b 45 0c             	mov    0xc(%ebp),%eax
    5967:	0f b6 00             	movzbl (%eax),%eax
    596a:	3c 39                	cmp    $0x39,%al
    596c:	7f 11                	jg     597f <.L51+0x2c>
    596e:	8d 45 0c             	lea    0xc(%ebp),%eax
    5971:	50                   	push   %eax
    5972:	e8 bd fc ff ff       	call   5634 <skip_atoi>
    5977:	83 c4 04             	add    $0x4,%esp
    597a:	89 45 e4             	mov    %eax,-0x1c(%ebp)
    597d:	eb 25                	jmp    59a4 <.L51+0x51>
    597f:	8b 45 0c             	mov    0xc(%ebp),%eax
    5982:	0f b6 00             	movzbl (%eax),%eax
    5985:	3c 2a                	cmp    $0x2a,%al
    5987:	75 1b                	jne    59a4 <.L51+0x51>
    5989:	8b 45 10             	mov    0x10(%ebp),%eax
    598c:	8d 50 04             	lea    0x4(%eax),%edx
    598f:	89 55 10             	mov    %edx,0x10(%ebp)
    5992:	8b 00                	mov    (%eax),%eax
    5994:	89 45 e4             	mov    %eax,-0x1c(%ebp)
    5997:	83 7d e4 00          	cmpl   $0x0,-0x1c(%ebp)
    599b:	79 07                	jns    59a4 <.L51+0x51>
    599d:	f7 5d e4             	negl   -0x1c(%ebp)
    59a0:	83 4d e8 10          	orl    $0x10,-0x18(%ebp)
    59a4:	c7 45 e0 ff ff ff ff 	movl   $0xffffffff,-0x20(%ebp)
    59ab:	8b 45 0c             	mov    0xc(%ebp),%eax
    59ae:	0f b6 00             	movzbl (%eax),%eax
    59b1:	3c 2e                	cmp    $0x2e,%al
    59b3:	75 53                	jne    5a08 <.L51+0xb5>
    59b5:	8b 45 0c             	mov    0xc(%ebp),%eax
    59b8:	83 c0 01             	add    $0x1,%eax
    59bb:	89 45 0c             	mov    %eax,0xc(%ebp)
    59be:	8b 45 0c             	mov    0xc(%ebp),%eax
    59c1:	0f b6 00             	movzbl (%eax),%eax
    59c4:	3c 2f                	cmp    $0x2f,%al
    59c6:	7e 1b                	jle    59e3 <.L51+0x90>
    59c8:	8b 45 0c             	mov    0xc(%ebp),%eax
    59cb:	0f b6 00             	movzbl (%eax),%eax
    59ce:	3c 39                	cmp    $0x39,%al
    59d0:	7f 11                	jg     59e3 <.L51+0x90>
    59d2:	8d 45 0c             	lea    0xc(%ebp),%eax
    59d5:	50                   	push   %eax
    59d6:	e8 59 fc ff ff       	call   5634 <skip_atoi>
    59db:	83 c4 04             	add    $0x4,%esp
    59de:	89 45 e0             	mov    %eax,-0x20(%ebp)
    59e1:	eb 18                	jmp    59fb <.L51+0xa8>
    59e3:	8b 45 0c             	mov    0xc(%ebp),%eax
    59e6:	0f b6 00             	movzbl (%eax),%eax
    59e9:	3c 2a                	cmp    $0x2a,%al
    59eb:	75 0e                	jne    59fb <.L51+0xa8>
    59ed:	8b 45 10             	mov    0x10(%ebp),%eax
    59f0:	8d 50 04             	lea    0x4(%eax),%edx
    59f3:	89 55 10             	mov    %edx,0x10(%ebp)
    59f6:	8b 00                	mov    (%eax),%eax
    59f8:	89 45 e0             	mov    %eax,-0x20(%ebp)
    59fb:	83 7d e0 00          	cmpl   $0x0,-0x20(%ebp)
    59ff:	79 07                	jns    5a08 <.L51+0xb5>
    5a01:	c7 45 e0 00 00 00 00 	movl   $0x0,-0x20(%ebp)
    5a08:	8b 45 0c             	mov    0xc(%ebp),%eax
    5a0b:	0f b6 00             	movzbl (%eax),%eax
    5a0e:	3c 68                	cmp    $0x68,%al
    5a10:	74 14                	je     5a26 <.L51+0xd3>
    5a12:	8b 45 0c             	mov    0xc(%ebp),%eax
    5a15:	0f b6 00             	movzbl (%eax),%eax
    5a18:	3c 6c                	cmp    $0x6c,%al
    5a1a:	74 0a                	je     5a26 <.L51+0xd3>
    5a1c:	8b 45 0c             	mov    0xc(%ebp),%eax
    5a1f:	0f b6 00             	movzbl (%eax),%eax
    5a22:	3c 4c                	cmp    $0x4c,%al
    5a24:	75 09                	jne    5a2f <.L51+0xdc>
    5a26:	8b 45 0c             	mov    0xc(%ebp),%eax
    5a29:	83 c0 01             	add    $0x1,%eax
    5a2c:	89 45 0c             	mov    %eax,0xc(%ebp)
    5a2f:	8b 45 0c             	mov    0xc(%ebp),%eax
    5a32:	0f b6 00             	movzbl (%eax),%eax
    5a35:	0f be c0             	movsbl %al,%eax
    5a38:	83 e8 58             	sub    $0x58,%eax
    5a3b:	83 f8 20             	cmp    $0x20,%eax
    5a3e:	0f 87 15 02 00 00    	ja     5c59 <.L65>
    5a44:	c1 e0 02             	shl    $0x2,%eax
    5a47:	8b 84 18 1c fe ff ff 	mov    -0x1e4(%eax,%ebx,1),%eax
    5a4e:	01 d8                	add    %ebx,%eax
    5a50:	ff e0                	jmp    *%eax

00005a52 <.L69>:
    5a52:	8b 45 e8             	mov    -0x18(%ebp),%eax
    5a55:	83 e0 10             	and    $0x10,%eax
    5a58:	85 c0                	test   %eax,%eax
    5a5a:	75 18                	jne    5a74 <.L69+0x22>
    5a5c:	eb 0c                	jmp    5a6a <.L69+0x18>
    5a5e:	8b 45 f0             	mov    -0x10(%ebp),%eax
    5a61:	8d 50 01             	lea    0x1(%eax),%edx
    5a64:	89 55 f0             	mov    %edx,-0x10(%ebp)
    5a67:	c6 00 20             	movb   $0x20,(%eax)
    5a6a:	83 6d e4 01          	subl   $0x1,-0x1c(%ebp)
    5a6e:	83 7d e4 00          	cmpl   $0x0,-0x1c(%ebp)
    5a72:	7f ea                	jg     5a5e <.L69+0xc>
    5a74:	8b 45 10             	mov    0x10(%ebp),%eax
    5a77:	8d 50 04             	lea    0x4(%eax),%edx
    5a7a:	89 55 10             	mov    %edx,0x10(%ebp)
    5a7d:	8b 08                	mov    (%eax),%ecx
    5a7f:	8b 45 f0             	mov    -0x10(%ebp),%eax
    5a82:	8d 50 01             	lea    0x1(%eax),%edx
    5a85:	89 55 f0             	mov    %edx,-0x10(%ebp)
    5a88:	89 ca                	mov    %ecx,%edx
    5a8a:	88 10                	mov    %dl,(%eax)
    5a8c:	eb 0c                	jmp    5a9a <.L69+0x48>
    5a8e:	8b 45 f0             	mov    -0x10(%ebp),%eax
    5a91:	8d 50 01             	lea    0x1(%eax),%edx
    5a94:	89 55 f0             	mov    %edx,-0x10(%ebp)
    5a97:	c6 00 20             	movb   $0x20,(%eax)
    5a9a:	83 6d e4 01          	subl   $0x1,-0x1c(%ebp)
    5a9e:	83 7d e4 00          	cmpl   $0x0,-0x1c(%ebp)
    5aa2:	7f ea                	jg     5a8e <.L69+0x3c>
    5aa4:	e9 ed 01 00 00       	jmp    5c96 <.L65+0x3d>

00005aa9 <.L74>:
    5aa9:	8b 45 10             	mov    0x10(%ebp),%eax
    5aac:	8d 50 04             	lea    0x4(%eax),%edx
    5aaf:	89 55 10             	mov    %edx,0x10(%ebp)
    5ab2:	8b 00                	mov    (%eax),%eax
    5ab4:	89 45 ec             	mov    %eax,-0x14(%ebp)
    5ab7:	ff 75 ec             	pushl  -0x14(%ebp)
    5aba:	e8 e1 fa ff ff       	call   55a0 <strlen>
    5abf:	83 c4 04             	add    $0x4,%esp
    5ac2:	89 45 f8             	mov    %eax,-0x8(%ebp)
    5ac5:	83 7d e0 00          	cmpl   $0x0,-0x20(%ebp)
    5ac9:	79 08                	jns    5ad3 <.L74+0x2a>
    5acb:	8b 45 f8             	mov    -0x8(%ebp),%eax
    5ace:	89 45 e0             	mov    %eax,-0x20(%ebp)
    5ad1:	eb 0e                	jmp    5ae1 <.L74+0x38>
    5ad3:	8b 45 f8             	mov    -0x8(%ebp),%eax
    5ad6:	3b 45 e0             	cmp    -0x20(%ebp),%eax
    5ad9:	7e 06                	jle    5ae1 <.L74+0x38>
    5adb:	8b 45 e0             	mov    -0x20(%ebp),%eax
    5ade:	89 45 f8             	mov    %eax,-0x8(%ebp)
    5ae1:	8b 45 e8             	mov    -0x18(%ebp),%eax
    5ae4:	83 e0 10             	and    $0x10,%eax
    5ae7:	85 c0                	test   %eax,%eax
    5ae9:	75 1c                	jne    5b07 <.L74+0x5e>
    5aeb:	eb 0c                	jmp    5af9 <.L74+0x50>
    5aed:	8b 45 f0             	mov    -0x10(%ebp),%eax
    5af0:	8d 50 01             	lea    0x1(%eax),%edx
    5af3:	89 55 f0             	mov    %edx,-0x10(%ebp)
    5af6:	c6 00 20             	movb   $0x20,(%eax)
    5af9:	8b 45 e4             	mov    -0x1c(%ebp),%eax
    5afc:	8d 50 ff             	lea    -0x1(%eax),%edx
    5aff:	89 55 e4             	mov    %edx,-0x1c(%ebp)
    5b02:	39 45 f8             	cmp    %eax,-0x8(%ebp)
    5b05:	7c e6                	jl     5aed <.L74+0x44>
    5b07:	c7 45 f4 00 00 00 00 	movl   $0x0,-0xc(%ebp)
    5b0e:	eb 1b                	jmp    5b2b <.L74+0x82>
    5b10:	8b 55 ec             	mov    -0x14(%ebp),%edx
    5b13:	8d 42 01             	lea    0x1(%edx),%eax
    5b16:	89 45 ec             	mov    %eax,-0x14(%ebp)
    5b19:	8b 45 f0             	mov    -0x10(%ebp),%eax
    5b1c:	8d 48 01             	lea    0x1(%eax),%ecx
    5b1f:	89 4d f0             	mov    %ecx,-0x10(%ebp)
    5b22:	0f b6 12             	movzbl (%edx),%edx
    5b25:	88 10                	mov    %dl,(%eax)
    5b27:	83 45 f4 01          	addl   $0x1,-0xc(%ebp)
    5b2b:	8b 45 f4             	mov    -0xc(%ebp),%eax
    5b2e:	3b 45 f8             	cmp    -0x8(%ebp),%eax
    5b31:	7c dd                	jl     5b10 <.L74+0x67>
    5b33:	eb 0c                	jmp    5b41 <.L74+0x98>
    5b35:	8b 45 f0             	mov    -0x10(%ebp),%eax
    5b38:	8d 50 01             	lea    0x1(%eax),%edx
    5b3b:	89 55 f0             	mov    %edx,-0x10(%ebp)
    5b3e:	c6 00 20             	movb   $0x20,(%eax)
    5b41:	8b 45 e4             	mov    -0x1c(%ebp),%eax
    5b44:	8d 50 ff             	lea    -0x1(%eax),%edx
    5b47:	89 55 e4             	mov    %edx,-0x1c(%ebp)
    5b4a:	39 45 f8             	cmp    %eax,-0x8(%ebp)
    5b4d:	7c e6                	jl     5b35 <.L74+0x8c>
    5b4f:	e9 42 01 00 00       	jmp    5c96 <.L65+0x3d>

00005b54 <.L72>:
    5b54:	8b 45 10             	mov    0x10(%ebp),%eax
    5b57:	8d 50 04             	lea    0x4(%eax),%edx
    5b5a:	89 55 10             	mov    %edx,0x10(%ebp)
    5b5d:	8b 00                	mov    (%eax),%eax
    5b5f:	ff 75 e8             	pushl  -0x18(%ebp)
    5b62:	ff 75 e0             	pushl  -0x20(%ebp)
    5b65:	ff 75 e4             	pushl  -0x1c(%ebp)
    5b68:	6a 08                	push   $0x8
    5b6a:	50                   	push   %eax
    5b6b:	ff 75 f0             	pushl  -0x10(%ebp)
    5b6e:	e8 25 fb ff ff       	call   5698 <number>
    5b73:	83 c4 18             	add    $0x18,%esp
    5b76:	89 45 f0             	mov    %eax,-0x10(%ebp)
    5b79:	e9 18 01 00 00       	jmp    5c96 <.L65+0x3d>

00005b7e <.L73>:
    5b7e:	83 7d e4 ff          	cmpl   $0xffffffff,-0x1c(%ebp)
    5b82:	75 0b                	jne    5b8f <.L73+0x11>
    5b84:	c7 45 e4 08 00 00 00 	movl   $0x8,-0x1c(%ebp)
    5b8b:	83 4d e8 01          	orl    $0x1,-0x18(%ebp)
    5b8f:	8b 45 10             	mov    0x10(%ebp),%eax
    5b92:	8d 50 04             	lea    0x4(%eax),%edx
    5b95:	89 55 10             	mov    %edx,0x10(%ebp)
    5b98:	8b 00                	mov    (%eax),%eax
    5b9a:	ff 75 e8             	pushl  -0x18(%ebp)
    5b9d:	ff 75 e0             	pushl  -0x20(%ebp)
    5ba0:	ff 75 e4             	pushl  -0x1c(%ebp)
    5ba3:	6a 10                	push   $0x10
    5ba5:	50                   	push   %eax
    5ba6:	ff 75 f0             	pushl  -0x10(%ebp)
    5ba9:	e8 ea fa ff ff       	call   5698 <number>
    5bae:	83 c4 18             	add    $0x18,%esp
    5bb1:	89 45 f0             	mov    %eax,-0x10(%ebp)
    5bb4:	e9 dd 00 00 00       	jmp    5c96 <.L65+0x3d>

00005bb9 <.L76>:
    5bb9:	83 4d e8 40          	orl    $0x40,-0x18(%ebp)

00005bbd <.L66>:
    5bbd:	8b 45 10             	mov    0x10(%ebp),%eax
    5bc0:	8d 50 04             	lea    0x4(%eax),%edx
    5bc3:	89 55 10             	mov    %edx,0x10(%ebp)
    5bc6:	8b 00                	mov    (%eax),%eax
    5bc8:	ff 75 e8             	pushl  -0x18(%ebp)
    5bcb:	ff 75 e0             	pushl  -0x20(%ebp)
    5bce:	ff 75 e4             	pushl  -0x1c(%ebp)
    5bd1:	6a 10                	push   $0x10
    5bd3:	50                   	push   %eax
    5bd4:	ff 75 f0             	pushl  -0x10(%ebp)
    5bd7:	e8 bc fa ff ff       	call   5698 <number>
    5bdc:	83 c4 18             	add    $0x18,%esp
    5bdf:	89 45 f0             	mov    %eax,-0x10(%ebp)
    5be2:	e9 af 00 00 00       	jmp    5c96 <.L65+0x3d>

00005be7 <.L70>:
    5be7:	83 4d e8 02          	orl    $0x2,-0x18(%ebp)

00005beb <.L75>:
    5beb:	8b 45 10             	mov    0x10(%ebp),%eax
    5bee:	8d 50 04             	lea    0x4(%eax),%edx
    5bf1:	89 55 10             	mov    %edx,0x10(%ebp)
    5bf4:	8b 00                	mov    (%eax),%eax
    5bf6:	ff 75 e8             	pushl  -0x18(%ebp)
    5bf9:	ff 75 e0             	pushl  -0x20(%ebp)
    5bfc:	ff 75 e4             	pushl  -0x1c(%ebp)
    5bff:	6a 0a                	push   $0xa
    5c01:	50                   	push   %eax
    5c02:	ff 75 f0             	pushl  -0x10(%ebp)
    5c05:	e8 8e fa ff ff       	call   5698 <number>
    5c0a:	83 c4 18             	add    $0x18,%esp
    5c0d:	89 45 f0             	mov    %eax,-0x10(%ebp)
    5c10:	e9 81 00 00 00       	jmp    5c96 <.L65+0x3d>

00005c15 <.L68>:
    5c15:	8b 45 10             	mov    0x10(%ebp),%eax
    5c18:	8d 50 04             	lea    0x4(%eax),%edx
    5c1b:	89 55 10             	mov    %edx,0x10(%ebp)
    5c1e:	8b 00                	mov    (%eax),%eax
    5c20:	ff 75 e8             	pushl  -0x18(%ebp)
    5c23:	ff 75 e0             	pushl  -0x20(%ebp)
    5c26:	ff 75 e4             	pushl  -0x1c(%ebp)
    5c29:	6a 02                	push   $0x2
    5c2b:	50                   	push   %eax
    5c2c:	ff 75 f0             	pushl  -0x10(%ebp)
    5c2f:	e8 64 fa ff ff       	call   5698 <number>
    5c34:	83 c4 18             	add    $0x18,%esp
    5c37:	89 45 f0             	mov    %eax,-0x10(%ebp)
    5c3a:	eb 5a                	jmp    5c96 <.L65+0x3d>

00005c3c <.L71>:
    5c3c:	8b 45 10             	mov    0x10(%ebp),%eax
    5c3f:	8d 50 04             	lea    0x4(%eax),%edx
    5c42:	89 55 10             	mov    %edx,0x10(%ebp)
    5c45:	8b 00                	mov    (%eax),%eax
    5c47:	89 45 dc             	mov    %eax,-0x24(%ebp)
    5c4a:	8b 55 f0             	mov    -0x10(%ebp),%edx
    5c4d:	8b 45 08             	mov    0x8(%ebp),%eax
    5c50:	29 c2                	sub    %eax,%edx
    5c52:	8b 45 dc             	mov    -0x24(%ebp),%eax
    5c55:	89 10                	mov    %edx,(%eax)
    5c57:	eb 3d                	jmp    5c96 <.L65+0x3d>

00005c59 <.L65>:
    5c59:	8b 45 0c             	mov    0xc(%ebp),%eax
    5c5c:	0f b6 00             	movzbl (%eax),%eax
    5c5f:	3c 25                	cmp    $0x25,%al
    5c61:	74 0c                	je     5c6f <.L65+0x16>
    5c63:	8b 45 f0             	mov    -0x10(%ebp),%eax
    5c66:	8d 50 01             	lea    0x1(%eax),%edx
    5c69:	89 55 f0             	mov    %edx,-0x10(%ebp)
    5c6c:	c6 00 25             	movb   $0x25,(%eax)
    5c6f:	8b 45 0c             	mov    0xc(%ebp),%eax
    5c72:	0f b6 00             	movzbl (%eax),%eax
    5c75:	84 c0                	test   %al,%al
    5c77:	74 13                	je     5c8c <.L65+0x33>
    5c79:	8b 55 0c             	mov    0xc(%ebp),%edx
    5c7c:	8b 45 f0             	mov    -0x10(%ebp),%eax
    5c7f:	8d 48 01             	lea    0x1(%eax),%ecx
    5c82:	89 4d f0             	mov    %ecx,-0x10(%ebp)
    5c85:	0f b6 12             	movzbl (%edx),%edx
    5c88:	88 10                	mov    %dl,(%eax)
    5c8a:	eb 09                	jmp    5c95 <.L65+0x3c>
    5c8c:	8b 45 0c             	mov    0xc(%ebp),%eax
    5c8f:	83 e8 01             	sub    $0x1,%eax
    5c92:	89 45 0c             	mov    %eax,0xc(%ebp)
    5c95:	90                   	nop
    5c96:	8b 45 0c             	mov    0xc(%ebp),%eax
    5c99:	83 c0 01             	add    $0x1,%eax
    5c9c:	89 45 0c             	mov    %eax,0xc(%ebp)
    5c9f:	8b 45 0c             	mov    0xc(%ebp),%eax
    5ca2:	0f b6 00             	movzbl (%eax),%eax
    5ca5:	84 c0                	test   %al,%al
    5ca7:	0f 85 3b fc ff ff    	jne    58e8 <vsprintf+0x1d>
    5cad:	8b 45 f0             	mov    -0x10(%ebp),%eax
    5cb0:	c6 00 00             	movb   $0x0,(%eax)
    5cb3:	8b 55 f0             	mov    -0x10(%ebp),%edx
    5cb6:	8b 45 08             	mov    0x8(%ebp),%eax
    5cb9:	29 c2                	sub    %eax,%edx
    5cbb:	89 d0                	mov    %edx,%eax
    5cbd:	8b 5d fc             	mov    -0x4(%ebp),%ebx
    5cc0:	c9                   	leave  
    5cc1:	c3                   	ret    

00005cc2 <memset>:
    5cc2:	55                   	push   %ebp
    5cc3:	89 e5                	mov    %esp,%ebp
    5cc5:	83 ec 14             	sub    $0x14,%esp
    5cc8:	e8 1b 1c 00 00       	call   78e8 <__x86.get_pc_thunk.ax>
    5ccd:	05 a3 2c 00 00       	add    $0x2ca3,%eax
    5cd2:	8b 45 0c             	mov    0xc(%ebp),%eax
    5cd5:	88 45 ec             	mov    %al,-0x14(%ebp)
    5cd8:	8b 45 08             	mov    0x8(%ebp),%eax
    5cdb:	89 45 fc             	mov    %eax,-0x4(%ebp)
    5cde:	eb 13                	jmp    5cf3 <memset+0x31>
    5ce0:	8b 45 fc             	mov    -0x4(%ebp),%eax
    5ce3:	8d 50 01             	lea    0x1(%eax),%edx
    5ce6:	89 55 fc             	mov    %edx,-0x4(%ebp)
    5ce9:	0f b6 55 ec          	movzbl -0x14(%ebp),%edx
    5ced:	88 10                	mov    %dl,(%eax)
    5cef:	83 6d 10 01          	subl   $0x1,0x10(%ebp)
    5cf3:	83 7d 10 00          	cmpl   $0x0,0x10(%ebp)
    5cf7:	75 e7                	jne    5ce0 <memset+0x1e>
    5cf9:	90                   	nop
    5cfa:	c9                   	leave  
    5cfb:	c3                   	ret    

00005cfc <bzero>:
    5cfc:	55                   	push   %ebp
    5cfd:	89 e5                	mov    %esp,%ebp
    5cff:	e8 e4 1b 00 00       	call   78e8 <__x86.get_pc_thunk.ax>
    5d04:	05 6c 2c 00 00       	add    $0x2c6c,%eax
    5d09:	ff 75 0c             	pushl  0xc(%ebp)
    5d0c:	6a 00                	push   $0x0
    5d0e:	ff 75 08             	pushl  0x8(%ebp)
    5d11:	e8 ac ff ff ff       	call   5cc2 <memset>
    5d16:	83 c4 0c             	add    $0xc,%esp
    5d19:	90                   	nop
    5d1a:	c9                   	leave  
    5d1b:	c3                   	ret    

00005d1c <set_gdt>:
    5d1c:	55                   	push   %ebp
    5d1d:	89 e5                	mov    %esp,%ebp
    5d1f:	56                   	push   %esi
    5d20:	53                   	push   %ebx
    5d21:	83 ec 08             	sub    $0x8,%esp
    5d24:	e8 bf 1b 00 00       	call   78e8 <__x86.get_pc_thunk.ax>
    5d29:	05 47 2c 00 00       	add    $0x2c47,%eax
    5d2e:	8b 4d 14             	mov    0x14(%ebp),%ecx
    5d31:	8b 55 18             	mov    0x18(%ebp),%edx
    5d34:	88 4d f4             	mov    %cl,-0xc(%ebp)
    5d37:	88 55 f0             	mov    %dl,-0x10(%ebp)
    5d3a:	8b 55 10             	mov    0x10(%ebp),%edx
    5d3d:	89 d3                	mov    %edx,%ebx
    5d3f:	c7 c2 60 c2 40 00    	mov    $0x40c260,%edx
    5d45:	8b 4d 08             	mov    0x8(%ebp),%ecx
    5d48:	66 89 1c ca          	mov    %bx,(%edx,%ecx,8)
    5d4c:	8b 55 0c             	mov    0xc(%ebp),%edx
    5d4f:	89 d3                	mov    %edx,%ebx
    5d51:	c7 c2 60 c2 40 00    	mov    $0x40c260,%edx
    5d57:	8b 4d 08             	mov    0x8(%ebp),%ecx
    5d5a:	66 89 5c ca 02       	mov    %bx,0x2(%edx,%ecx,8)
    5d5f:	8b 55 0c             	mov    0xc(%ebp),%edx
    5d62:	c1 ea 10             	shr    $0x10,%edx
    5d65:	89 d3                	mov    %edx,%ebx
    5d67:	c7 c2 60 c2 40 00    	mov    $0x40c260,%edx
    5d6d:	8b 4d 08             	mov    0x8(%ebp),%ecx
    5d70:	88 5c ca 04          	mov    %bl,0x4(%edx,%ecx,8)
    5d74:	c7 c2 60 c2 40 00    	mov    $0x40c260,%edx
    5d7a:	8b 4d 08             	mov    0x8(%ebp),%ecx
    5d7d:	0f b6 5d f4          	movzbl -0xc(%ebp),%ebx
    5d81:	88 5c ca 05          	mov    %bl,0x5(%edx,%ecx,8)
    5d85:	8b 55 10             	mov    0x10(%ebp),%edx
    5d88:	c1 ea 10             	shr    $0x10,%edx
    5d8b:	83 e2 0f             	and    $0xf,%edx
    5d8e:	c7 c1 60 c2 40 00    	mov    $0x40c260,%ecx
    5d94:	8b 5d 08             	mov    0x8(%ebp),%ebx
    5d97:	89 d6                	mov    %edx,%esi
    5d99:	83 e6 0f             	and    $0xf,%esi
    5d9c:	0f b6 54 d9 06       	movzbl 0x6(%ecx,%ebx,8),%edx
    5da1:	83 e2 f0             	and    $0xfffffff0,%edx
    5da4:	09 f2                	or     %esi,%edx
    5da6:	88 54 d9 06          	mov    %dl,0x6(%ecx,%ebx,8)
    5daa:	0f b6 55 f0          	movzbl -0x10(%ebp),%edx
    5dae:	89 d3                	mov    %edx,%ebx
    5db0:	83 e3 0f             	and    $0xf,%ebx
    5db3:	c7 c2 60 c2 40 00    	mov    $0x40c260,%edx
    5db9:	8b 4d 08             	mov    0x8(%ebp),%ecx
    5dbc:	89 de                	mov    %ebx,%esi
    5dbe:	c1 e6 04             	shl    $0x4,%esi
    5dc1:	0f b6 5c ca 06       	movzbl 0x6(%edx,%ecx,8),%ebx
    5dc6:	83 e3 0f             	and    $0xf,%ebx
    5dc9:	09 f3                	or     %esi,%ebx
    5dcb:	88 5c ca 06          	mov    %bl,0x6(%edx,%ecx,8)
    5dcf:	8b 55 0c             	mov    0xc(%ebp),%edx
    5dd2:	c1 ea 18             	shr    $0x18,%edx
    5dd5:	89 d1                	mov    %edx,%ecx
    5dd7:	c7 c0 60 c2 40 00    	mov    $0x40c260,%eax
    5ddd:	8b 55 08             	mov    0x8(%ebp),%edx
    5de0:	88 4c d0 07          	mov    %cl,0x7(%eax,%edx,8)
    5de4:	90                   	nop
    5de5:	83 c4 08             	add    $0x8,%esp
    5de8:	5b                   	pop    %ebx
    5de9:	5e                   	pop    %esi
    5dea:	5d                   	pop    %ebp
    5deb:	c3                   	ret    

00005dec <set_tssldt2_gdt>:
    5dec:	55                   	push   %ebp
    5ded:	89 e5                	mov    %esp,%ebp
    5def:	53                   	push   %ebx
    5df0:	83 ec 04             	sub    $0x4,%esp
    5df3:	e8 f0 1a 00 00       	call   78e8 <__x86.get_pc_thunk.ax>
    5df8:	05 78 2b 00 00       	add    $0x2b78,%eax
    5dfd:	8b 55 10             	mov    0x10(%ebp),%edx
    5e00:	88 55 f8             	mov    %dl,-0x8(%ebp)
    5e03:	c7 c2 60 c2 40 00    	mov    $0x40c260,%edx
    5e09:	8b 4d 08             	mov    0x8(%ebp),%ecx
    5e0c:	66 c7 04 ca 68 00    	movw   $0x68,(%edx,%ecx,8)
    5e12:	8b 55 0c             	mov    0xc(%ebp),%edx
    5e15:	89 d3                	mov    %edx,%ebx
    5e17:	c7 c2 60 c2 40 00    	mov    $0x40c260,%edx
    5e1d:	8b 4d 08             	mov    0x8(%ebp),%ecx
    5e20:	66 89 5c ca 02       	mov    %bx,0x2(%edx,%ecx,8)
    5e25:	8b 55 0c             	mov    0xc(%ebp),%edx
    5e28:	c1 ea 10             	shr    $0x10,%edx
    5e2b:	89 d3                	mov    %edx,%ebx
    5e2d:	c7 c2 60 c2 40 00    	mov    $0x40c260,%edx
    5e33:	8b 4d 08             	mov    0x8(%ebp),%ecx
    5e36:	88 5c ca 04          	mov    %bl,0x4(%edx,%ecx,8)
    5e3a:	0f b6 5d f8          	movzbl -0x8(%ebp),%ebx
    5e3e:	c7 c2 60 c2 40 00    	mov    $0x40c260,%edx
    5e44:	8b 4d 08             	mov    0x8(%ebp),%ecx
    5e47:	88 5c ca 05          	mov    %bl,0x5(%edx,%ecx,8)
    5e4b:	c7 c2 60 c2 40 00    	mov    $0x40c260,%edx
    5e51:	8b 4d 08             	mov    0x8(%ebp),%ecx
    5e54:	0f b6 5c ca 06       	movzbl 0x6(%edx,%ecx,8),%ebx
    5e59:	83 e3 f0             	and    $0xfffffff0,%ebx
    5e5c:	88 5c ca 06          	mov    %bl,0x6(%edx,%ecx,8)
    5e60:	c7 c2 60 c2 40 00    	mov    $0x40c260,%edx
    5e66:	8b 4d 08             	mov    0x8(%ebp),%ecx
    5e69:	0f b6 5c ca 06       	movzbl 0x6(%edx,%ecx,8),%ebx
    5e6e:	83 e3 0f             	and    $0xf,%ebx
    5e71:	88 5c ca 06          	mov    %bl,0x6(%edx,%ecx,8)
    5e75:	8b 55 0c             	mov    0xc(%ebp),%edx
    5e78:	c1 ea 18             	shr    $0x18,%edx
    5e7b:	89 d1                	mov    %edx,%ecx
    5e7d:	c7 c0 60 c2 40 00    	mov    $0x40c260,%eax
    5e83:	8b 55 08             	mov    0x8(%ebp),%edx
    5e86:	88 4c d0 07          	mov    %cl,0x7(%eax,%edx,8)
    5e8a:	90                   	nop
    5e8b:	83 c4 04             	add    $0x4,%esp
    5e8e:	5b                   	pop    %ebx
    5e8f:	5d                   	pop    %ebp
    5e90:	c3                   	ret    

00005e91 <set_idt>:
    5e91:	55                   	push   %ebp
    5e92:	89 e5                	mov    %esp,%ebp
    5e94:	53                   	push   %ebx
    5e95:	83 ec 08             	sub    $0x8,%esp
    5e98:	e8 4b 1a 00 00       	call   78e8 <__x86.get_pc_thunk.ax>
    5e9d:	05 d3 2a 00 00       	add    $0x2ad3,%eax
    5ea2:	8b 4d 10             	mov    0x10(%ebp),%ecx
    5ea5:	8b 55 14             	mov    0x14(%ebp),%edx
    5ea8:	66 89 4d f8          	mov    %cx,-0x8(%ebp)
    5eac:	66 89 55 f4          	mov    %dx,-0xc(%ebp)
    5eb0:	8b 55 0c             	mov    0xc(%ebp),%edx
    5eb3:	89 d3                	mov    %edx,%ebx
    5eb5:	c7 c2 80 ca 40 00    	mov    $0x40ca80,%edx
    5ebb:	8b 4d 08             	mov    0x8(%ebp),%ecx
    5ebe:	66 89 1c ca          	mov    %bx,(%edx,%ecx,8)
    5ec2:	8b 55 0c             	mov    0xc(%ebp),%edx
    5ec5:	c1 ea 10             	shr    $0x10,%edx
    5ec8:	89 d3                	mov    %edx,%ebx
    5eca:	c7 c2 80 ca 40 00    	mov    $0x40ca80,%edx
    5ed0:	8b 4d 08             	mov    0x8(%ebp),%ecx
    5ed3:	66 89 5c ca 06       	mov    %bx,0x6(%edx,%ecx,8)
    5ed8:	c7 c2 80 ca 40 00    	mov    $0x40ca80,%edx
    5ede:	8b 4d 08             	mov    0x8(%ebp),%ecx
    5ee1:	0f b7 5d f8          	movzwl -0x8(%ebp),%ebx
    5ee5:	66 89 5c ca 02       	mov    %bx,0x2(%edx,%ecx,8)
    5eea:	c7 c2 80 ca 40 00    	mov    $0x40ca80,%edx
    5ef0:	8b 4d 08             	mov    0x8(%ebp),%ecx
    5ef3:	c6 44 ca 04 00       	movb   $0x0,0x4(%edx,%ecx,8)
    5ef8:	0f b7 55 f4          	movzwl -0xc(%ebp),%edx
    5efc:	89 d1                	mov    %edx,%ecx
    5efe:	c7 c0 80 ca 40 00    	mov    $0x40ca80,%eax
    5f04:	8b 55 08             	mov    0x8(%ebp),%edx
    5f07:	88 4c d0 05          	mov    %cl,0x5(%eax,%edx,8)
    5f0b:	90                   	nop
    5f0c:	83 c4 08             	add    $0x8,%esp
    5f0f:	5b                   	pop    %ebx
    5f10:	5d                   	pop    %ebp
    5f11:	c3                   	ret    

00005f12 <init_gdt>:
    5f12:	55                   	push   %ebp
    5f13:	89 e5                	mov    %esp,%ebp
    5f15:	53                   	push   %ebx
    5f16:	83 ec 14             	sub    $0x14,%esp
    5f19:	e8 ce 19 00 00       	call   78ec <__x86.get_pc_thunk.bx>
    5f1e:	81 c3 52 2a 00 00    	add    $0x2a52,%ebx
    5f24:	c7 45 f4 00 00 00 00 	movl   $0x0,-0xc(%ebp)
    5f2b:	83 ec 0c             	sub    $0xc,%esp
    5f2e:	8d 83 a0 fe ff ff    	lea    -0x160(%ebx),%eax
    5f34:	50                   	push   %eax
    5f35:	e8 9c f6 ff ff       	call   55d6 <printk>
    5f3a:	83 c4 10             	add    $0x10,%esp
    5f3d:	c7 c0 68 ca 40 00    	mov    $0x40ca68,%eax
    5f43:	66 c7 00 ff 07       	movw   $0x7ff,(%eax)
    5f48:	c7 c0 60 c2 40 00    	mov    $0x40c260,%eax
    5f4e:	89 c2                	mov    %eax,%edx
    5f50:	c7 c0 68 ca 40 00    	mov    $0x40ca68,%eax
    5f56:	89 50 02             	mov    %edx,0x2(%eax)
    5f59:	83 ec 0c             	sub    $0xc,%esp
    5f5c:	6a 00                	push   $0x0
    5f5e:	6a 00                	push   $0x0
    5f60:	6a 00                	push   $0x0
    5f62:	6a 00                	push   $0x0
    5f64:	6a 00                	push   $0x0
    5f66:	e8 b1 fd ff ff       	call   5d1c <set_gdt>
    5f6b:	83 c4 20             	add    $0x20,%esp
    5f6e:	83 ec 0c             	sub    $0xc,%esp
    5f71:	6a 0c                	push   $0xc
    5f73:	68 9a 00 00 00       	push   $0x9a
    5f78:	68 ff ff 0f 00       	push   $0xfffff
    5f7d:	6a 00                	push   $0x0
    5f7f:	6a 01                	push   $0x1
    5f81:	e8 96 fd ff ff       	call   5d1c <set_gdt>
    5f86:	83 c4 20             	add    $0x20,%esp
    5f89:	83 ec 0c             	sub    $0xc,%esp
    5f8c:	6a 0c                	push   $0xc
    5f8e:	68 92 00 00 00       	push   $0x92
    5f93:	68 ff ff 0f 00       	push   $0xfffff
    5f98:	6a 00                	push   $0x0
    5f9a:	6a 02                	push   $0x2
    5f9c:	e8 7b fd ff ff       	call   5d1c <set_gdt>
    5fa1:	83 c4 20             	add    $0x20,%esp
    5fa4:	83 ec 0c             	sub    $0xc,%esp
    5fa7:	6a 00                	push   $0x0
    5fa9:	6a 00                	push   $0x0
    5fab:	6a 00                	push   $0x0
    5fad:	6a 00                	push   $0x0
    5faf:	6a 03                	push   $0x3
    5fb1:	e8 66 fd ff ff       	call   5d1c <set_gdt>
    5fb6:	83 c4 20             	add    $0x20,%esp
    5fb9:	c7 45 f4 06 00 00 00 	movl   $0x6,-0xc(%ebp)
    5fc0:	eb 1a                	jmp    5fdc <init_gdt+0xca>
    5fc2:	83 ec 0c             	sub    $0xc,%esp
    5fc5:	6a 00                	push   $0x0
    5fc7:	6a 00                	push   $0x0
    5fc9:	6a 00                	push   $0x0
    5fcb:	6a 00                	push   $0x0
    5fcd:	ff 75 f4             	pushl  -0xc(%ebp)
    5fd0:	e8 47 fd ff ff       	call   5d1c <set_gdt>
    5fd5:	83 c4 20             	add    $0x20,%esp
    5fd8:	83 45 f4 01          	addl   $0x1,-0xc(%ebp)
    5fdc:	81 7d f4 ff 00 00 00 	cmpl   $0xff,-0xc(%ebp)
    5fe3:	7e dd                	jle    5fc2 <init_gdt+0xb0>
    5fe5:	83 ec 0c             	sub    $0xc,%esp
    5fe8:	c7 c0 68 ca 40 00    	mov    $0x40ca68,%eax
    5fee:	50                   	push   %eax
    5fef:	e8 86 f0 ff ff       	call   507a <load_gdtr>
    5ff4:	83 c4 10             	add    $0x10,%esp
    5ff7:	90                   	nop
    5ff8:	8b 5d fc             	mov    -0x4(%ebp),%ebx
    5ffb:	c9                   	leave  
    5ffc:	c3                   	ret    

00005ffd <init_idt>:
    5ffd:	55                   	push   %ebp
    5ffe:	89 e5                	mov    %esp,%ebp
    6000:	53                   	push   %ebx
    6001:	83 ec 04             	sub    $0x4,%esp
    6004:	e8 e3 18 00 00       	call   78ec <__x86.get_pc_thunk.bx>
    6009:	81 c3 67 29 00 00    	add    $0x2967,%ebx
    600f:	83 ec 0c             	sub    $0xc,%esp
    6012:	8d 83 b3 fe ff ff    	lea    -0x14d(%ebx),%eax
    6018:	50                   	push   %eax
    6019:	e8 b8 f5 ff ff       	call   55d6 <printk>
    601e:	83 c4 10             	add    $0x10,%esp
    6021:	83 ec 08             	sub    $0x8,%esp
    6024:	6a 11                	push   $0x11
    6026:	6a 20                	push   $0x20
    6028:	e8 dc 10 00 00       	call   7109 <outb>
    602d:	83 c4 10             	add    $0x10,%esp
    6030:	83 ec 08             	sub    $0x8,%esp
    6033:	6a 11                	push   $0x11
    6035:	68 a0 00 00 00       	push   $0xa0
    603a:	e8 ca 10 00 00       	call   7109 <outb>
    603f:	83 c4 10             	add    $0x10,%esp
    6042:	83 ec 08             	sub    $0x8,%esp
    6045:	6a 20                	push   $0x20
    6047:	6a 21                	push   $0x21
    6049:	e8 bb 10 00 00       	call   7109 <outb>
    604e:	83 c4 10             	add    $0x10,%esp
    6051:	83 ec 08             	sub    $0x8,%esp
    6054:	6a 28                	push   $0x28
    6056:	68 a1 00 00 00       	push   $0xa1
    605b:	e8 a9 10 00 00       	call   7109 <outb>
    6060:	83 c4 10             	add    $0x10,%esp
    6063:	83 ec 08             	sub    $0x8,%esp
    6066:	6a 04                	push   $0x4
    6068:	6a 21                	push   $0x21
    606a:	e8 9a 10 00 00       	call   7109 <outb>
    606f:	83 c4 10             	add    $0x10,%esp
    6072:	83 ec 08             	sub    $0x8,%esp
    6075:	6a 02                	push   $0x2
    6077:	68 a1 00 00 00       	push   $0xa1
    607c:	e8 88 10 00 00       	call   7109 <outb>
    6081:	83 c4 10             	add    $0x10,%esp
    6084:	83 ec 08             	sub    $0x8,%esp
    6087:	6a 01                	push   $0x1
    6089:	6a 21                	push   $0x21
    608b:	e8 79 10 00 00       	call   7109 <outb>
    6090:	83 c4 10             	add    $0x10,%esp
    6093:	83 ec 08             	sub    $0x8,%esp
    6096:	6a 01                	push   $0x1
    6098:	68 a1 00 00 00       	push   $0xa1
    609d:	e8 67 10 00 00       	call   7109 <outb>
    60a2:	83 c4 10             	add    $0x10,%esp
    60a5:	83 ec 08             	sub    $0x8,%esp
    60a8:	6a 00                	push   $0x0
    60aa:	6a 21                	push   $0x21
    60ac:	e8 58 10 00 00       	call   7109 <outb>
    60b1:	83 c4 10             	add    $0x10,%esp
    60b4:	83 ec 08             	sub    $0x8,%esp
    60b7:	6a 00                	push   $0x0
    60b9:	68 a1 00 00 00       	push   $0xa1
    60be:	e8 46 10 00 00       	call   7109 <outb>
    60c3:	83 c4 10             	add    $0x10,%esp
    60c6:	c7 c0 70 ca 40 00    	mov    $0x40ca70,%eax
    60cc:	66 c7 00 ff 07       	movw   $0x7ff,(%eax)
    60d1:	c7 c0 80 ca 40 00    	mov    $0x40ca80,%eax
    60d7:	89 c2                	mov    %eax,%edx
    60d9:	c7 c0 70 ca 40 00    	mov    $0x40ca70,%eax
    60df:	89 50 02             	mov    %edx,0x2(%eax)
    60e2:	83 ec 08             	sub    $0x8,%esp
    60e5:	68 00 04 00 00       	push   $0x400
    60ea:	c7 c0 40 be 40 00    	mov    $0x40be40,%eax
    60f0:	50                   	push   %eax
    60f1:	e8 06 fc ff ff       	call   5cfc <bzero>
    60f6:	83 c4 10             	add    $0x10,%esp
    60f9:	83 ec 08             	sub    $0x8,%esp
    60fc:	68 00 08 00 00       	push   $0x800
    6101:	c7 c0 80 ca 40 00    	mov    $0x40ca80,%eax
    6107:	50                   	push   %eax
    6108:	e8 ef fb ff ff       	call   5cfc <bzero>
    610d:	83 c4 10             	add    $0x10,%esp
    6110:	c7 c0 aa 50 00 00    	mov    $0x50aa,%eax
    6116:	68 8e 00 00 00       	push   $0x8e
    611b:	6a 08                	push   $0x8
    611d:	50                   	push   %eax
    611e:	6a 00                	push   $0x0
    6120:	e8 6c fd ff ff       	call   5e91 <set_idt>
    6125:	83 c4 10             	add    $0x10,%esp
    6128:	c7 c0 b4 50 00 00    	mov    $0x50b4,%eax
    612e:	68 8e 00 00 00       	push   $0x8e
    6133:	6a 08                	push   $0x8
    6135:	50                   	push   %eax
    6136:	6a 01                	push   $0x1
    6138:	e8 54 fd ff ff       	call   5e91 <set_idt>
    613d:	83 c4 10             	add    $0x10,%esp
    6140:	c7 c0 be 50 00 00    	mov    $0x50be,%eax
    6146:	68 8e 00 00 00       	push   $0x8e
    614b:	6a 08                	push   $0x8
    614d:	50                   	push   %eax
    614e:	6a 02                	push   $0x2
    6150:	e8 3c fd ff ff       	call   5e91 <set_idt>
    6155:	83 c4 10             	add    $0x10,%esp
    6158:	c7 c0 c8 50 00 00    	mov    $0x50c8,%eax
    615e:	68 8e 00 00 00       	push   $0x8e
    6163:	6a 08                	push   $0x8
    6165:	50                   	push   %eax
    6166:	6a 03                	push   $0x3
    6168:	e8 24 fd ff ff       	call   5e91 <set_idt>
    616d:	83 c4 10             	add    $0x10,%esp
    6170:	c7 c0 d2 50 00 00    	mov    $0x50d2,%eax
    6176:	68 8e 00 00 00       	push   $0x8e
    617b:	6a 08                	push   $0x8
    617d:	50                   	push   %eax
    617e:	6a 04                	push   $0x4
    6180:	e8 0c fd ff ff       	call   5e91 <set_idt>
    6185:	83 c4 10             	add    $0x10,%esp
    6188:	c7 c0 dc 50 00 00    	mov    $0x50dc,%eax
    618e:	68 8e 00 00 00       	push   $0x8e
    6193:	6a 08                	push   $0x8
    6195:	50                   	push   %eax
    6196:	6a 05                	push   $0x5
    6198:	e8 f4 fc ff ff       	call   5e91 <set_idt>
    619d:	83 c4 10             	add    $0x10,%esp
    61a0:	c7 c0 e6 50 00 00    	mov    $0x50e6,%eax
    61a6:	68 8e 00 00 00       	push   $0x8e
    61ab:	6a 08                	push   $0x8
    61ad:	50                   	push   %eax
    61ae:	6a 06                	push   $0x6
    61b0:	e8 dc fc ff ff       	call   5e91 <set_idt>
    61b5:	83 c4 10             	add    $0x10,%esp
    61b8:	c7 c0 f0 50 00 00    	mov    $0x50f0,%eax
    61be:	68 8e 00 00 00       	push   $0x8e
    61c3:	6a 08                	push   $0x8
    61c5:	50                   	push   %eax
    61c6:	6a 07                	push   $0x7
    61c8:	e8 c4 fc ff ff       	call   5e91 <set_idt>
    61cd:	83 c4 10             	add    $0x10,%esp
    61d0:	c7 c0 fa 50 00 00    	mov    $0x50fa,%eax
    61d6:	68 8e 00 00 00       	push   $0x8e
    61db:	6a 08                	push   $0x8
    61dd:	50                   	push   %eax
    61de:	6a 08                	push   $0x8
    61e0:	e8 ac fc ff ff       	call   5e91 <set_idt>
    61e5:	83 c4 10             	add    $0x10,%esp
    61e8:	c7 c0 02 51 00 00    	mov    $0x5102,%eax
    61ee:	68 8e 00 00 00       	push   $0x8e
    61f3:	6a 08                	push   $0x8
    61f5:	50                   	push   %eax
    61f6:	6a 09                	push   $0x9
    61f8:	e8 94 fc ff ff       	call   5e91 <set_idt>
    61fd:	83 c4 10             	add    $0x10,%esp
    6200:	c7 c0 0c 51 00 00    	mov    $0x510c,%eax
    6206:	68 8e 00 00 00       	push   $0x8e
    620b:	6a 08                	push   $0x8
    620d:	50                   	push   %eax
    620e:	6a 0a                	push   $0xa
    6210:	e8 7c fc ff ff       	call   5e91 <set_idt>
    6215:	83 c4 10             	add    $0x10,%esp
    6218:	c7 c0 14 51 00 00    	mov    $0x5114,%eax
    621e:	68 8e 00 00 00       	push   $0x8e
    6223:	6a 08                	push   $0x8
    6225:	50                   	push   %eax
    6226:	6a 0b                	push   $0xb
    6228:	e8 64 fc ff ff       	call   5e91 <set_idt>
    622d:	83 c4 10             	add    $0x10,%esp
    6230:	c7 c0 1c 51 00 00    	mov    $0x511c,%eax
    6236:	68 8e 00 00 00       	push   $0x8e
    623b:	6a 08                	push   $0x8
    623d:	50                   	push   %eax
    623e:	6a 0c                	push   $0xc
    6240:	e8 4c fc ff ff       	call   5e91 <set_idt>
    6245:	83 c4 10             	add    $0x10,%esp
    6248:	c7 c0 24 51 00 00    	mov    $0x5124,%eax
    624e:	68 8e 00 00 00       	push   $0x8e
    6253:	6a 08                	push   $0x8
    6255:	50                   	push   %eax
    6256:	6a 0d                	push   $0xd
    6258:	e8 34 fc ff ff       	call   5e91 <set_idt>
    625d:	83 c4 10             	add    $0x10,%esp
    6260:	c7 c0 2c 51 00 00    	mov    $0x512c,%eax
    6266:	68 8e 00 00 00       	push   $0x8e
    626b:	6a 08                	push   $0x8
    626d:	50                   	push   %eax
    626e:	6a 0e                	push   $0xe
    6270:	e8 1c fc ff ff       	call   5e91 <set_idt>
    6275:	83 c4 10             	add    $0x10,%esp
    6278:	c7 c0 31 51 00 00    	mov    $0x5131,%eax
    627e:	68 8e 00 00 00       	push   $0x8e
    6283:	6a 08                	push   $0x8
    6285:	50                   	push   %eax
    6286:	6a 0f                	push   $0xf
    6288:	e8 04 fc ff ff       	call   5e91 <set_idt>
    628d:	83 c4 10             	add    $0x10,%esp
    6290:	c7 c0 38 51 00 00    	mov    $0x5138,%eax
    6296:	68 8e 00 00 00       	push   $0x8e
    629b:	6a 08                	push   $0x8
    629d:	50                   	push   %eax
    629e:	6a 10                	push   $0x10
    62a0:	e8 ec fb ff ff       	call   5e91 <set_idt>
    62a5:	83 c4 10             	add    $0x10,%esp
    62a8:	c7 c0 3f 51 00 00    	mov    $0x513f,%eax
    62ae:	68 8e 00 00 00       	push   $0x8e
    62b3:	6a 08                	push   $0x8
    62b5:	50                   	push   %eax
    62b6:	6a 11                	push   $0x11
    62b8:	e8 d4 fb ff ff       	call   5e91 <set_idt>
    62bd:	83 c4 10             	add    $0x10,%esp
    62c0:	c7 c0 44 51 00 00    	mov    $0x5144,%eax
    62c6:	68 8e 00 00 00       	push   $0x8e
    62cb:	6a 08                	push   $0x8
    62cd:	50                   	push   %eax
    62ce:	6a 12                	push   $0x12
    62d0:	e8 bc fb ff ff       	call   5e91 <set_idt>
    62d5:	83 c4 10             	add    $0x10,%esp
    62d8:	c7 c0 4b 51 00 00    	mov    $0x514b,%eax
    62de:	68 8e 00 00 00       	push   $0x8e
    62e3:	6a 08                	push   $0x8
    62e5:	50                   	push   %eax
    62e6:	6a 13                	push   $0x13
    62e8:	e8 a4 fb ff ff       	call   5e91 <set_idt>
    62ed:	83 c4 10             	add    $0x10,%esp
    62f0:	c7 c0 52 51 00 00    	mov    $0x5152,%eax
    62f6:	68 8e 00 00 00       	push   $0x8e
    62fb:	6a 08                	push   $0x8
    62fd:	50                   	push   %eax
    62fe:	6a 14                	push   $0x14
    6300:	e8 8c fb ff ff       	call   5e91 <set_idt>
    6305:	83 c4 10             	add    $0x10,%esp
    6308:	c7 c0 59 51 00 00    	mov    $0x5159,%eax
    630e:	68 8e 00 00 00       	push   $0x8e
    6313:	6a 08                	push   $0x8
    6315:	50                   	push   %eax
    6316:	6a 15                	push   $0x15
    6318:	e8 74 fb ff ff       	call   5e91 <set_idt>
    631d:	83 c4 10             	add    $0x10,%esp
    6320:	c7 c0 60 51 00 00    	mov    $0x5160,%eax
    6326:	68 8e 00 00 00       	push   $0x8e
    632b:	6a 08                	push   $0x8
    632d:	50                   	push   %eax
    632e:	6a 16                	push   $0x16
    6330:	e8 5c fb ff ff       	call   5e91 <set_idt>
    6335:	83 c4 10             	add    $0x10,%esp
    6338:	c7 c0 67 51 00 00    	mov    $0x5167,%eax
    633e:	68 8e 00 00 00       	push   $0x8e
    6343:	6a 08                	push   $0x8
    6345:	50                   	push   %eax
    6346:	6a 17                	push   $0x17
    6348:	e8 44 fb ff ff       	call   5e91 <set_idt>
    634d:	83 c4 10             	add    $0x10,%esp
    6350:	c7 c0 6e 51 00 00    	mov    $0x516e,%eax
    6356:	68 8e 00 00 00       	push   $0x8e
    635b:	6a 08                	push   $0x8
    635d:	50                   	push   %eax
    635e:	6a 18                	push   $0x18
    6360:	e8 2c fb ff ff       	call   5e91 <set_idt>
    6365:	83 c4 10             	add    $0x10,%esp
    6368:	c7 c0 75 51 00 00    	mov    $0x5175,%eax
    636e:	68 8e 00 00 00       	push   $0x8e
    6373:	6a 08                	push   $0x8
    6375:	50                   	push   %eax
    6376:	6a 19                	push   $0x19
    6378:	e8 14 fb ff ff       	call   5e91 <set_idt>
    637d:	83 c4 10             	add    $0x10,%esp
    6380:	c7 c0 7c 51 00 00    	mov    $0x517c,%eax
    6386:	68 8e 00 00 00       	push   $0x8e
    638b:	6a 08                	push   $0x8
    638d:	50                   	push   %eax
    638e:	6a 1a                	push   $0x1a
    6390:	e8 fc fa ff ff       	call   5e91 <set_idt>
    6395:	83 c4 10             	add    $0x10,%esp
    6398:	c7 c0 83 51 00 00    	mov    $0x5183,%eax
    639e:	68 8e 00 00 00       	push   $0x8e
    63a3:	6a 08                	push   $0x8
    63a5:	50                   	push   %eax
    63a6:	6a 1b                	push   $0x1b
    63a8:	e8 e4 fa ff ff       	call   5e91 <set_idt>
    63ad:	83 c4 10             	add    $0x10,%esp
    63b0:	c7 c0 8a 51 00 00    	mov    $0x518a,%eax
    63b6:	68 8e 00 00 00       	push   $0x8e
    63bb:	6a 08                	push   $0x8
    63bd:	50                   	push   %eax
    63be:	6a 1c                	push   $0x1c
    63c0:	e8 cc fa ff ff       	call   5e91 <set_idt>
    63c5:	83 c4 10             	add    $0x10,%esp
    63c8:	c7 c0 91 51 00 00    	mov    $0x5191,%eax
    63ce:	68 8e 00 00 00       	push   $0x8e
    63d3:	6a 08                	push   $0x8
    63d5:	50                   	push   %eax
    63d6:	6a 1d                	push   $0x1d
    63d8:	e8 b4 fa ff ff       	call   5e91 <set_idt>
    63dd:	83 c4 10             	add    $0x10,%esp
    63e0:	c7 c0 98 51 00 00    	mov    $0x5198,%eax
    63e6:	68 8e 00 00 00       	push   $0x8e
    63eb:	6a 08                	push   $0x8
    63ed:	50                   	push   %eax
    63ee:	6a 1e                	push   $0x1e
    63f0:	e8 9c fa ff ff       	call   5e91 <set_idt>
    63f5:	83 c4 10             	add    $0x10,%esp
    63f8:	c7 c0 9f 51 00 00    	mov    $0x519f,%eax
    63fe:	68 8e 00 00 00       	push   $0x8e
    6403:	6a 08                	push   $0x8
    6405:	50                   	push   %eax
    6406:	6a 1f                	push   $0x1f
    6408:	e8 84 fa ff ff       	call   5e91 <set_idt>
    640d:	83 c4 10             	add    $0x10,%esp
    6410:	c7 c0 dc 51 00 00    	mov    $0x51dc,%eax
    6416:	68 8e 00 00 00       	push   $0x8e
    641b:	6a 08                	push   $0x8
    641d:	50                   	push   %eax
    641e:	6a 20                	push   $0x20
    6420:	e8 6c fa ff ff       	call   5e91 <set_idt>
    6425:	83 c4 10             	add    $0x10,%esp
    6428:	c7 c0 e3 51 00 00    	mov    $0x51e3,%eax
    642e:	68 8e 00 00 00       	push   $0x8e
    6433:	6a 08                	push   $0x8
    6435:	50                   	push   %eax
    6436:	6a 21                	push   $0x21
    6438:	e8 54 fa ff ff       	call   5e91 <set_idt>
    643d:	83 c4 10             	add    $0x10,%esp
    6440:	c7 c0 ea 51 00 00    	mov    $0x51ea,%eax
    6446:	68 8e 00 00 00       	push   $0x8e
    644b:	6a 08                	push   $0x8
    644d:	50                   	push   %eax
    644e:	6a 22                	push   $0x22
    6450:	e8 3c fa ff ff       	call   5e91 <set_idt>
    6455:	83 c4 10             	add    $0x10,%esp
    6458:	c7 c0 f1 51 00 00    	mov    $0x51f1,%eax
    645e:	68 8e 00 00 00       	push   $0x8e
    6463:	6a 08                	push   $0x8
    6465:	50                   	push   %eax
    6466:	6a 23                	push   $0x23
    6468:	e8 24 fa ff ff       	call   5e91 <set_idt>
    646d:	83 c4 10             	add    $0x10,%esp
    6470:	c7 c0 f8 51 00 00    	mov    $0x51f8,%eax
    6476:	68 8e 00 00 00       	push   $0x8e
    647b:	6a 08                	push   $0x8
    647d:	50                   	push   %eax
    647e:	6a 24                	push   $0x24
    6480:	e8 0c fa ff ff       	call   5e91 <set_idt>
    6485:	83 c4 10             	add    $0x10,%esp
    6488:	c7 c0 ff 51 00 00    	mov    $0x51ff,%eax
    648e:	68 8e 00 00 00       	push   $0x8e
    6493:	6a 08                	push   $0x8
    6495:	50                   	push   %eax
    6496:	6a 25                	push   $0x25
    6498:	e8 f4 f9 ff ff       	call   5e91 <set_idt>
    649d:	83 c4 10             	add    $0x10,%esp
    64a0:	c7 c0 06 52 00 00    	mov    $0x5206,%eax
    64a6:	68 8e 00 00 00       	push   $0x8e
    64ab:	6a 08                	push   $0x8
    64ad:	50                   	push   %eax
    64ae:	6a 26                	push   $0x26
    64b0:	e8 dc f9 ff ff       	call   5e91 <set_idt>
    64b5:	83 c4 10             	add    $0x10,%esp
    64b8:	c7 c0 0d 52 00 00    	mov    $0x520d,%eax
    64be:	68 8e 00 00 00       	push   $0x8e
    64c3:	6a 08                	push   $0x8
    64c5:	50                   	push   %eax
    64c6:	6a 27                	push   $0x27
    64c8:	e8 c4 f9 ff ff       	call   5e91 <set_idt>
    64cd:	83 c4 10             	add    $0x10,%esp
    64d0:	c7 c0 14 52 00 00    	mov    $0x5214,%eax
    64d6:	68 8e 00 00 00       	push   $0x8e
    64db:	6a 08                	push   $0x8
    64dd:	50                   	push   %eax
    64de:	6a 28                	push   $0x28
    64e0:	e8 ac f9 ff ff       	call   5e91 <set_idt>
    64e5:	83 c4 10             	add    $0x10,%esp
    64e8:	c7 c0 1b 52 00 00    	mov    $0x521b,%eax
    64ee:	68 8e 00 00 00       	push   $0x8e
    64f3:	6a 08                	push   $0x8
    64f5:	50                   	push   %eax
    64f6:	6a 29                	push   $0x29
    64f8:	e8 94 f9 ff ff       	call   5e91 <set_idt>
    64fd:	83 c4 10             	add    $0x10,%esp
    6500:	c7 c0 22 52 00 00    	mov    $0x5222,%eax
    6506:	68 8e 00 00 00       	push   $0x8e
    650b:	6a 08                	push   $0x8
    650d:	50                   	push   %eax
    650e:	6a 2a                	push   $0x2a
    6510:	e8 7c f9 ff ff       	call   5e91 <set_idt>
    6515:	83 c4 10             	add    $0x10,%esp
    6518:	c7 c0 29 52 00 00    	mov    $0x5229,%eax
    651e:	68 8e 00 00 00       	push   $0x8e
    6523:	6a 08                	push   $0x8
    6525:	50                   	push   %eax
    6526:	6a 2b                	push   $0x2b
    6528:	e8 64 f9 ff ff       	call   5e91 <set_idt>
    652d:	83 c4 10             	add    $0x10,%esp
    6530:	c7 c0 30 52 00 00    	mov    $0x5230,%eax
    6536:	68 8e 00 00 00       	push   $0x8e
    653b:	6a 08                	push   $0x8
    653d:	50                   	push   %eax
    653e:	6a 2c                	push   $0x2c
    6540:	e8 4c f9 ff ff       	call   5e91 <set_idt>
    6545:	83 c4 10             	add    $0x10,%esp
    6548:	c7 c0 37 52 00 00    	mov    $0x5237,%eax
    654e:	68 8e 00 00 00       	push   $0x8e
    6553:	6a 08                	push   $0x8
    6555:	50                   	push   %eax
    6556:	6a 2d                	push   $0x2d
    6558:	e8 34 f9 ff ff       	call   5e91 <set_idt>
    655d:	83 c4 10             	add    $0x10,%esp
    6560:	c7 c0 3e 52 00 00    	mov    $0x523e,%eax
    6566:	68 8e 00 00 00       	push   $0x8e
    656b:	6a 08                	push   $0x8
    656d:	50                   	push   %eax
    656e:	6a 2e                	push   $0x2e
    6570:	e8 1c f9 ff ff       	call   5e91 <set_idt>
    6575:	83 c4 10             	add    $0x10,%esp
    6578:	c7 c0 45 52 00 00    	mov    $0x5245,%eax
    657e:	68 8e 00 00 00       	push   $0x8e
    6583:	6a 08                	push   $0x8
    6585:	50                   	push   %eax
    6586:	6a 2f                	push   $0x2f
    6588:	e8 04 f9 ff ff       	call   5e91 <set_idt>
    658d:	83 c4 10             	add    $0x10,%esp
    6590:	c7 c0 a6 51 00 00    	mov    $0x51a6,%eax
    6596:	68 8e 00 00 00       	push   $0x8e
    659b:	6a 08                	push   $0x8
    659d:	50                   	push   %eax
    659e:	68 ff 00 00 00       	push   $0xff
    65a3:	e8 e9 f8 ff ff       	call   5e91 <set_idt>
    65a8:	83 c4 10             	add    $0x10,%esp
    65ab:	83 ec 0c             	sub    $0xc,%esp
    65ae:	c7 c0 70 ca 40 00    	mov    $0x40ca70,%eax
    65b4:	50                   	push   %eax
    65b5:	e8 dd ea ff ff       	call   5097 <load_idtr>
    65ba:	83 c4 10             	add    $0x10,%esp
    65bd:	90                   	nop
    65be:	8b 5d fc             	mov    -0x4(%ebp),%ebx
    65c1:	c9                   	leave  
    65c2:	c3                   	ret    

000065c3 <init0>:
    65c3:	55                   	push   %ebp
    65c4:	89 e5                	mov    %esp,%ebp
    65c6:	83 ec 10             	sub    $0x10,%esp
    65c9:	e8 1a 13 00 00       	call   78e8 <__x86.get_pc_thunk.ax>
    65ce:	05 a2 23 00 00       	add    $0x23a2,%eax
    65d3:	c7 45 fc 00 00 00 00 	movl   $0x0,-0x4(%ebp)
    65da:	83 45 fc 01          	addl   $0x1,-0x4(%ebp)
    65de:	eb fe                	jmp    65de <init0+0x1b>

000065e0 <schedule_init>:
    65e0:	55                   	push   %ebp
    65e1:	89 e5                	mov    %esp,%ebp
    65e3:	53                   	push   %ebx
    65e4:	83 ec 04             	sub    $0x4,%esp
    65e7:	e8 00 13 00 00       	call   78ec <__x86.get_pc_thunk.bx>
    65ec:	81 c3 84 23 00 00    	add    $0x2384,%ebx
    65f2:	83 ec 0c             	sub    $0xc,%esp
    65f5:	8d 83 c4 fe ff ff    	lea    -0x13c(%ebx),%eax
    65fb:	50                   	push   %eax
    65fc:	e8 d5 ef ff ff       	call   55d6 <printk>
    6601:	83 c4 10             	add    $0x10,%esp
    6604:	8d 83 b0 00 00 00    	lea    0xb0(%ebx),%eax
    660a:	83 ec 04             	sub    $0x4,%esp
    660d:	6a 89                	push   $0xffffff89
    660f:	50                   	push   %eax
    6610:	6a 04                	push   $0x4
    6612:	e8 d5 f7 ff ff       	call   5dec <set_tssldt2_gdt>
    6617:	83 c4 10             	add    $0x10,%esp
    661a:	8d 83 98 00 00 00    	lea    0x98(%ebx),%eax
    6620:	83 ec 04             	sub    $0x4,%esp
    6623:	6a 82                	push   $0xffffff82
    6625:	50                   	push   %eax
    6626:	6a 05                	push   $0x5
    6628:	e8 bf f7 ff ff       	call   5dec <set_tssldt2_gdt>
    662d:	83 c4 10             	add    $0x10,%esp
    6630:	9c                   	pushf  
    6631:	81 24 24 ff bf ff ff 	andl   $0xffffbfff,(%esp)
    6638:	9d                   	popf   
    6639:	b8 20 00 00 00       	mov    $0x20,%eax
    663e:	0f 00 d8             	ltr    %ax
    6641:	b8 28 00 00 00       	mov    $0x28,%eax
    6646:	0f 00 d0             	lldt   %ax
    6649:	83 ec 0c             	sub    $0xc,%esp
    664c:	6a 64                	push   $0x64
    664e:	e8 1d ee ff ff       	call   5470 <init_timer>
    6653:	83 c4 10             	add    $0x10,%esp
    6656:	c7 c0 78 52 00 00    	mov    $0x5278,%eax
    665c:	68 8e 00 00 00       	push   $0x8e
    6661:	6a 08                	push   $0x8
    6663:	50                   	push   %eax
    6664:	68 80 00 00 00       	push   $0x80
    6669:	e8 23 f8 ff ff       	call   5e91 <set_idt>
    666e:	83 c4 10             	add    $0x10,%esp
    6671:	83 ec 0c             	sub    $0xc,%esp
    6674:	8d 83 d8 fe ff ff    	lea    -0x128(%ebx),%eax
    667a:	50                   	push   %eax
    667b:	e8 56 ef ff ff       	call   55d6 <printk>
    6680:	83 c4 10             	add    $0x10,%esp
    6683:	90                   	nop
    6684:	8b 5d fc             	mov    -0x4(%ebp),%ebx
    6687:	c9                   	leave  
    6688:	c3                   	ret    

00006689 <reschedule>:
    6689:	55                   	push   %ebp
    668a:	89 e5                	mov    %esp,%ebp
    668c:	e8 57 12 00 00       	call   78e8 <__x86.get_pc_thunk.ax>
    6691:	05 df 22 00 00       	add    $0x22df,%eax
    6696:	90                   	nop
    6697:	5d                   	pop    %ebp
    6698:	c3                   	ret    

00006699 <memset>:
    6699:	55                   	push   %ebp
    669a:	89 e5                	mov    %esp,%ebp
    669c:	83 ec 14             	sub    $0x14,%esp
    669f:	e8 44 12 00 00       	call   78e8 <__x86.get_pc_thunk.ax>
    66a4:	05 cc 22 00 00       	add    $0x22cc,%eax
    66a9:	8b 45 0c             	mov    0xc(%ebp),%eax
    66ac:	88 45 ec             	mov    %al,-0x14(%ebp)
    66af:	8b 45 08             	mov    0x8(%ebp),%eax
    66b2:	89 45 fc             	mov    %eax,-0x4(%ebp)
    66b5:	eb 13                	jmp    66ca <memset+0x31>
    66b7:	8b 45 fc             	mov    -0x4(%ebp),%eax
    66ba:	8d 50 01             	lea    0x1(%eax),%edx
    66bd:	89 55 fc             	mov    %edx,-0x4(%ebp)
    66c0:	0f b6 55 ec          	movzbl -0x14(%ebp),%edx
    66c4:	88 10                	mov    %dl,(%eax)
    66c6:	83 6d 10 01          	subl   $0x1,0x10(%ebp)
    66ca:	83 7d 10 00          	cmpl   $0x0,0x10(%ebp)
    66ce:	75 e7                	jne    66b7 <memset+0x1e>
    66d0:	90                   	nop
    66d1:	c9                   	leave  
    66d2:	c3                   	ret    

000066d3 <bzero>:
    66d3:	55                   	push   %ebp
    66d4:	89 e5                	mov    %esp,%ebp
    66d6:	e8 0d 12 00 00       	call   78e8 <__x86.get_pc_thunk.ax>
    66db:	05 95 22 00 00       	add    $0x2295,%eax
    66e0:	ff 75 0c             	pushl  0xc(%ebp)
    66e3:	6a 00                	push   $0x0
    66e5:	ff 75 08             	pushl  0x8(%ebp)
    66e8:	e8 ac ff ff ff       	call   6699 <memset>
    66ed:	83 c4 0c             	add    $0xc,%esp
    66f0:	90                   	nop
    66f1:	c9                   	leave  
    66f2:	c3                   	ret    

000066f3 <set_gdt>:
    66f3:	55                   	push   %ebp
    66f4:	89 e5                	mov    %esp,%ebp
    66f6:	56                   	push   %esi
    66f7:	53                   	push   %ebx
    66f8:	83 ec 08             	sub    $0x8,%esp
    66fb:	e8 e8 11 00 00       	call   78e8 <__x86.get_pc_thunk.ax>
    6700:	05 70 22 00 00       	add    $0x2270,%eax
    6705:	8b 4d 14             	mov    0x14(%ebp),%ecx
    6708:	8b 55 18             	mov    0x18(%ebp),%edx
    670b:	88 4d f4             	mov    %cl,-0xc(%ebp)
    670e:	88 55 f0             	mov    %dl,-0x10(%ebp)
    6711:	8b 55 10             	mov    0x10(%ebp),%edx
    6714:	89 d3                	mov    %edx,%ebx
    6716:	c7 c2 60 c2 40 00    	mov    $0x40c260,%edx
    671c:	8b 4d 08             	mov    0x8(%ebp),%ecx
    671f:	66 89 1c ca          	mov    %bx,(%edx,%ecx,8)
    6723:	8b 55 0c             	mov    0xc(%ebp),%edx
    6726:	89 d3                	mov    %edx,%ebx
    6728:	c7 c2 60 c2 40 00    	mov    $0x40c260,%edx
    672e:	8b 4d 08             	mov    0x8(%ebp),%ecx
    6731:	66 89 5c ca 02       	mov    %bx,0x2(%edx,%ecx,8)
    6736:	8b 55 0c             	mov    0xc(%ebp),%edx
    6739:	c1 ea 10             	shr    $0x10,%edx
    673c:	89 d3                	mov    %edx,%ebx
    673e:	c7 c2 60 c2 40 00    	mov    $0x40c260,%edx
    6744:	8b 4d 08             	mov    0x8(%ebp),%ecx
    6747:	88 5c ca 04          	mov    %bl,0x4(%edx,%ecx,8)
    674b:	c7 c2 60 c2 40 00    	mov    $0x40c260,%edx
    6751:	8b 4d 08             	mov    0x8(%ebp),%ecx
    6754:	0f b6 5d f4          	movzbl -0xc(%ebp),%ebx
    6758:	88 5c ca 05          	mov    %bl,0x5(%edx,%ecx,8)
    675c:	8b 55 10             	mov    0x10(%ebp),%edx
    675f:	c1 ea 10             	shr    $0x10,%edx
    6762:	83 e2 0f             	and    $0xf,%edx
    6765:	c7 c1 60 c2 40 00    	mov    $0x40c260,%ecx
    676b:	8b 5d 08             	mov    0x8(%ebp),%ebx
    676e:	89 d6                	mov    %edx,%esi
    6770:	83 e6 0f             	and    $0xf,%esi
    6773:	0f b6 54 d9 06       	movzbl 0x6(%ecx,%ebx,8),%edx
    6778:	83 e2 f0             	and    $0xfffffff0,%edx
    677b:	09 f2                	or     %esi,%edx
    677d:	88 54 d9 06          	mov    %dl,0x6(%ecx,%ebx,8)
    6781:	0f b6 55 f0          	movzbl -0x10(%ebp),%edx
    6785:	89 d3                	mov    %edx,%ebx
    6787:	83 e3 0f             	and    $0xf,%ebx
    678a:	c7 c2 60 c2 40 00    	mov    $0x40c260,%edx
    6790:	8b 4d 08             	mov    0x8(%ebp),%ecx
    6793:	89 de                	mov    %ebx,%esi
    6795:	c1 e6 04             	shl    $0x4,%esi
    6798:	0f b6 5c ca 06       	movzbl 0x6(%edx,%ecx,8),%ebx
    679d:	83 e3 0f             	and    $0xf,%ebx
    67a0:	09 f3                	or     %esi,%ebx
    67a2:	88 5c ca 06          	mov    %bl,0x6(%edx,%ecx,8)
    67a6:	8b 55 0c             	mov    0xc(%ebp),%edx
    67a9:	c1 ea 18             	shr    $0x18,%edx
    67ac:	89 d1                	mov    %edx,%ecx
    67ae:	c7 c0 60 c2 40 00    	mov    $0x40c260,%eax
    67b4:	8b 55 08             	mov    0x8(%ebp),%edx
    67b7:	88 4c d0 07          	mov    %cl,0x7(%eax,%edx,8)
    67bb:	90                   	nop
    67bc:	83 c4 08             	add    $0x8,%esp
    67bf:	5b                   	pop    %ebx
    67c0:	5e                   	pop    %esi
    67c1:	5d                   	pop    %ebp
    67c2:	c3                   	ret    

000067c3 <set_tssldt2_gdt>:
    67c3:	55                   	push   %ebp
    67c4:	89 e5                	mov    %esp,%ebp
    67c6:	53                   	push   %ebx
    67c7:	83 ec 04             	sub    $0x4,%esp
    67ca:	e8 19 11 00 00       	call   78e8 <__x86.get_pc_thunk.ax>
    67cf:	05 a1 21 00 00       	add    $0x21a1,%eax
    67d4:	8b 55 10             	mov    0x10(%ebp),%edx
    67d7:	88 55 f8             	mov    %dl,-0x8(%ebp)
    67da:	c7 c2 60 c2 40 00    	mov    $0x40c260,%edx
    67e0:	8b 4d 08             	mov    0x8(%ebp),%ecx
    67e3:	66 c7 04 ca 68 00    	movw   $0x68,(%edx,%ecx,8)
    67e9:	8b 55 0c             	mov    0xc(%ebp),%edx
    67ec:	89 d3                	mov    %edx,%ebx
    67ee:	c7 c2 60 c2 40 00    	mov    $0x40c260,%edx
    67f4:	8b 4d 08             	mov    0x8(%ebp),%ecx
    67f7:	66 89 5c ca 02       	mov    %bx,0x2(%edx,%ecx,8)
    67fc:	8b 55 0c             	mov    0xc(%ebp),%edx
    67ff:	c1 ea 10             	shr    $0x10,%edx
    6802:	89 d3                	mov    %edx,%ebx
    6804:	c7 c2 60 c2 40 00    	mov    $0x40c260,%edx
    680a:	8b 4d 08             	mov    0x8(%ebp),%ecx
    680d:	88 5c ca 04          	mov    %bl,0x4(%edx,%ecx,8)
    6811:	0f b6 5d f8          	movzbl -0x8(%ebp),%ebx
    6815:	c7 c2 60 c2 40 00    	mov    $0x40c260,%edx
    681b:	8b 4d 08             	mov    0x8(%ebp),%ecx
    681e:	88 5c ca 05          	mov    %bl,0x5(%edx,%ecx,8)
    6822:	c7 c2 60 c2 40 00    	mov    $0x40c260,%edx
    6828:	8b 4d 08             	mov    0x8(%ebp),%ecx
    682b:	0f b6 5c ca 06       	movzbl 0x6(%edx,%ecx,8),%ebx
    6830:	83 e3 f0             	and    $0xfffffff0,%ebx
    6833:	88 5c ca 06          	mov    %bl,0x6(%edx,%ecx,8)
    6837:	c7 c2 60 c2 40 00    	mov    $0x40c260,%edx
    683d:	8b 4d 08             	mov    0x8(%ebp),%ecx
    6840:	0f b6 5c ca 06       	movzbl 0x6(%edx,%ecx,8),%ebx
    6845:	83 e3 0f             	and    $0xf,%ebx
    6848:	88 5c ca 06          	mov    %bl,0x6(%edx,%ecx,8)
    684c:	8b 55 0c             	mov    0xc(%ebp),%edx
    684f:	c1 ea 18             	shr    $0x18,%edx
    6852:	89 d1                	mov    %edx,%ecx
    6854:	c7 c0 60 c2 40 00    	mov    $0x40c260,%eax
    685a:	8b 55 08             	mov    0x8(%ebp),%edx
    685d:	88 4c d0 07          	mov    %cl,0x7(%eax,%edx,8)
    6861:	90                   	nop
    6862:	83 c4 04             	add    $0x4,%esp
    6865:	5b                   	pop    %ebx
    6866:	5d                   	pop    %ebp
    6867:	c3                   	ret    

00006868 <set_idt>:
    6868:	55                   	push   %ebp
    6869:	89 e5                	mov    %esp,%ebp
    686b:	53                   	push   %ebx
    686c:	83 ec 08             	sub    $0x8,%esp
    686f:	e8 74 10 00 00       	call   78e8 <__x86.get_pc_thunk.ax>
    6874:	05 fc 20 00 00       	add    $0x20fc,%eax
    6879:	8b 4d 10             	mov    0x10(%ebp),%ecx
    687c:	8b 55 14             	mov    0x14(%ebp),%edx
    687f:	66 89 4d f8          	mov    %cx,-0x8(%ebp)
    6883:	66 89 55 f4          	mov    %dx,-0xc(%ebp)
    6887:	8b 55 0c             	mov    0xc(%ebp),%edx
    688a:	89 d3                	mov    %edx,%ebx
    688c:	c7 c2 80 ca 40 00    	mov    $0x40ca80,%edx
    6892:	8b 4d 08             	mov    0x8(%ebp),%ecx
    6895:	66 89 1c ca          	mov    %bx,(%edx,%ecx,8)
    6899:	8b 55 0c             	mov    0xc(%ebp),%edx
    689c:	c1 ea 10             	shr    $0x10,%edx
    689f:	89 d3                	mov    %edx,%ebx
    68a1:	c7 c2 80 ca 40 00    	mov    $0x40ca80,%edx
    68a7:	8b 4d 08             	mov    0x8(%ebp),%ecx
    68aa:	66 89 5c ca 06       	mov    %bx,0x6(%edx,%ecx,8)
    68af:	c7 c2 80 ca 40 00    	mov    $0x40ca80,%edx
    68b5:	8b 4d 08             	mov    0x8(%ebp),%ecx
    68b8:	0f b7 5d f8          	movzwl -0x8(%ebp),%ebx
    68bc:	66 89 5c ca 02       	mov    %bx,0x2(%edx,%ecx,8)
    68c1:	c7 c2 80 ca 40 00    	mov    $0x40ca80,%edx
    68c7:	8b 4d 08             	mov    0x8(%ebp),%ecx
    68ca:	c6 44 ca 04 00       	movb   $0x0,0x4(%edx,%ecx,8)
    68cf:	0f b7 55 f4          	movzwl -0xc(%ebp),%edx
    68d3:	89 d1                	mov    %edx,%ecx
    68d5:	c7 c0 80 ca 40 00    	mov    $0x40ca80,%eax
    68db:	8b 55 08             	mov    0x8(%ebp),%edx
    68de:	88 4c d0 05          	mov    %cl,0x5(%eax,%edx,8)
    68e2:	90                   	nop
    68e3:	83 c4 08             	add    $0x8,%esp
    68e6:	5b                   	pop    %ebx
    68e7:	5d                   	pop    %ebp
    68e8:	c3                   	ret    

000068e9 <init_gdt>:
    68e9:	55                   	push   %ebp
    68ea:	89 e5                	mov    %esp,%ebp
    68ec:	53                   	push   %ebx
    68ed:	83 ec 14             	sub    $0x14,%esp
    68f0:	e8 f7 0f 00 00       	call   78ec <__x86.get_pc_thunk.bx>
    68f5:	81 c3 7b 20 00 00    	add    $0x207b,%ebx
    68fb:	c7 45 f4 00 00 00 00 	movl   $0x0,-0xc(%ebp)
    6902:	83 ec 0c             	sub    $0xc,%esp
    6905:	8d 83 f4 fe ff ff    	lea    -0x10c(%ebx),%eax
    690b:	50                   	push   %eax
    690c:	e8 c5 ec ff ff       	call   55d6 <printk>
    6911:	83 c4 10             	add    $0x10,%esp
    6914:	c7 c0 68 ca 40 00    	mov    $0x40ca68,%eax
    691a:	66 c7 00 ff 07       	movw   $0x7ff,(%eax)
    691f:	c7 c0 60 c2 40 00    	mov    $0x40c260,%eax
    6925:	89 c2                	mov    %eax,%edx
    6927:	c7 c0 68 ca 40 00    	mov    $0x40ca68,%eax
    692d:	89 50 02             	mov    %edx,0x2(%eax)
    6930:	83 ec 0c             	sub    $0xc,%esp
    6933:	6a 00                	push   $0x0
    6935:	6a 00                	push   $0x0
    6937:	6a 00                	push   $0x0
    6939:	6a 00                	push   $0x0
    693b:	6a 00                	push   $0x0
    693d:	e8 b1 fd ff ff       	call   66f3 <set_gdt>
    6942:	83 c4 20             	add    $0x20,%esp
    6945:	83 ec 0c             	sub    $0xc,%esp
    6948:	6a 0c                	push   $0xc
    694a:	68 9a 00 00 00       	push   $0x9a
    694f:	68 ff ff 0f 00       	push   $0xfffff
    6954:	6a 00                	push   $0x0
    6956:	6a 01                	push   $0x1
    6958:	e8 96 fd ff ff       	call   66f3 <set_gdt>
    695d:	83 c4 20             	add    $0x20,%esp
    6960:	83 ec 0c             	sub    $0xc,%esp
    6963:	6a 0c                	push   $0xc
    6965:	68 92 00 00 00       	push   $0x92
    696a:	68 ff ff 0f 00       	push   $0xfffff
    696f:	6a 00                	push   $0x0
    6971:	6a 02                	push   $0x2
    6973:	e8 7b fd ff ff       	call   66f3 <set_gdt>
    6978:	83 c4 20             	add    $0x20,%esp
    697b:	83 ec 0c             	sub    $0xc,%esp
    697e:	6a 00                	push   $0x0
    6980:	6a 00                	push   $0x0
    6982:	6a 00                	push   $0x0
    6984:	6a 00                	push   $0x0
    6986:	6a 03                	push   $0x3
    6988:	e8 66 fd ff ff       	call   66f3 <set_gdt>
    698d:	83 c4 20             	add    $0x20,%esp
    6990:	c7 45 f4 06 00 00 00 	movl   $0x6,-0xc(%ebp)
    6997:	eb 1a                	jmp    69b3 <init_gdt+0xca>
    6999:	83 ec 0c             	sub    $0xc,%esp
    699c:	6a 00                	push   $0x0
    699e:	6a 00                	push   $0x0
    69a0:	6a 00                	push   $0x0
    69a2:	6a 00                	push   $0x0
    69a4:	ff 75 f4             	pushl  -0xc(%ebp)
    69a7:	e8 47 fd ff ff       	call   66f3 <set_gdt>
    69ac:	83 c4 20             	add    $0x20,%esp
    69af:	83 45 f4 01          	addl   $0x1,-0xc(%ebp)
    69b3:	81 7d f4 ff 00 00 00 	cmpl   $0xff,-0xc(%ebp)
    69ba:	7e dd                	jle    6999 <init_gdt+0xb0>
    69bc:	83 ec 0c             	sub    $0xc,%esp
    69bf:	c7 c0 68 ca 40 00    	mov    $0x40ca68,%eax
    69c5:	50                   	push   %eax
    69c6:	e8 af e6 ff ff       	call   507a <load_gdtr>
    69cb:	83 c4 10             	add    $0x10,%esp
    69ce:	90                   	nop
    69cf:	8b 5d fc             	mov    -0x4(%ebp),%ebx
    69d2:	c9                   	leave  
    69d3:	c3                   	ret    

000069d4 <init_idt>:
    69d4:	55                   	push   %ebp
    69d5:	89 e5                	mov    %esp,%ebp
    69d7:	53                   	push   %ebx
    69d8:	83 ec 04             	sub    $0x4,%esp
    69db:	e8 0c 0f 00 00       	call   78ec <__x86.get_pc_thunk.bx>
    69e0:	81 c3 90 1f 00 00    	add    $0x1f90,%ebx
    69e6:	83 ec 0c             	sub    $0xc,%esp
    69e9:	8d 83 07 ff ff ff    	lea    -0xf9(%ebx),%eax
    69ef:	50                   	push   %eax
    69f0:	e8 e1 eb ff ff       	call   55d6 <printk>
    69f5:	83 c4 10             	add    $0x10,%esp
    69f8:	83 ec 08             	sub    $0x8,%esp
    69fb:	6a 11                	push   $0x11
    69fd:	6a 20                	push   $0x20
    69ff:	e8 05 07 00 00       	call   7109 <outb>
    6a04:	83 c4 10             	add    $0x10,%esp
    6a07:	83 ec 08             	sub    $0x8,%esp
    6a0a:	6a 11                	push   $0x11
    6a0c:	68 a0 00 00 00       	push   $0xa0
    6a11:	e8 f3 06 00 00       	call   7109 <outb>
    6a16:	83 c4 10             	add    $0x10,%esp
    6a19:	83 ec 08             	sub    $0x8,%esp
    6a1c:	6a 20                	push   $0x20
    6a1e:	6a 21                	push   $0x21
    6a20:	e8 e4 06 00 00       	call   7109 <outb>
    6a25:	83 c4 10             	add    $0x10,%esp
    6a28:	83 ec 08             	sub    $0x8,%esp
    6a2b:	6a 28                	push   $0x28
    6a2d:	68 a1 00 00 00       	push   $0xa1
    6a32:	e8 d2 06 00 00       	call   7109 <outb>
    6a37:	83 c4 10             	add    $0x10,%esp
    6a3a:	83 ec 08             	sub    $0x8,%esp
    6a3d:	6a 04                	push   $0x4
    6a3f:	6a 21                	push   $0x21
    6a41:	e8 c3 06 00 00       	call   7109 <outb>
    6a46:	83 c4 10             	add    $0x10,%esp
    6a49:	83 ec 08             	sub    $0x8,%esp
    6a4c:	6a 02                	push   $0x2
    6a4e:	68 a1 00 00 00       	push   $0xa1
    6a53:	e8 b1 06 00 00       	call   7109 <outb>
    6a58:	83 c4 10             	add    $0x10,%esp
    6a5b:	83 ec 08             	sub    $0x8,%esp
    6a5e:	6a 01                	push   $0x1
    6a60:	6a 21                	push   $0x21
    6a62:	e8 a2 06 00 00       	call   7109 <outb>
    6a67:	83 c4 10             	add    $0x10,%esp
    6a6a:	83 ec 08             	sub    $0x8,%esp
    6a6d:	6a 01                	push   $0x1
    6a6f:	68 a1 00 00 00       	push   $0xa1
    6a74:	e8 90 06 00 00       	call   7109 <outb>
    6a79:	83 c4 10             	add    $0x10,%esp
    6a7c:	83 ec 08             	sub    $0x8,%esp
    6a7f:	6a 00                	push   $0x0
    6a81:	6a 21                	push   $0x21
    6a83:	e8 81 06 00 00       	call   7109 <outb>
    6a88:	83 c4 10             	add    $0x10,%esp
    6a8b:	83 ec 08             	sub    $0x8,%esp
    6a8e:	6a 00                	push   $0x0
    6a90:	68 a1 00 00 00       	push   $0xa1
    6a95:	e8 6f 06 00 00       	call   7109 <outb>
    6a9a:	83 c4 10             	add    $0x10,%esp
    6a9d:	c7 c0 70 ca 40 00    	mov    $0x40ca70,%eax
    6aa3:	66 c7 00 ff 07       	movw   $0x7ff,(%eax)
    6aa8:	c7 c0 80 ca 40 00    	mov    $0x40ca80,%eax
    6aae:	89 c2                	mov    %eax,%edx
    6ab0:	c7 c0 70 ca 40 00    	mov    $0x40ca70,%eax
    6ab6:	89 50 02             	mov    %edx,0x2(%eax)
    6ab9:	83 ec 08             	sub    $0x8,%esp
    6abc:	68 00 04 00 00       	push   $0x400
    6ac1:	c7 c0 40 be 40 00    	mov    $0x40be40,%eax
    6ac7:	50                   	push   %eax
    6ac8:	e8 06 fc ff ff       	call   66d3 <bzero>
    6acd:	83 c4 10             	add    $0x10,%esp
    6ad0:	83 ec 08             	sub    $0x8,%esp
    6ad3:	68 00 08 00 00       	push   $0x800
    6ad8:	c7 c0 80 ca 40 00    	mov    $0x40ca80,%eax
    6ade:	50                   	push   %eax
    6adf:	e8 ef fb ff ff       	call   66d3 <bzero>
    6ae4:	83 c4 10             	add    $0x10,%esp
    6ae7:	c7 c0 aa 50 00 00    	mov    $0x50aa,%eax
    6aed:	68 8e 00 00 00       	push   $0x8e
    6af2:	6a 08                	push   $0x8
    6af4:	50                   	push   %eax
    6af5:	6a 00                	push   $0x0
    6af7:	e8 6c fd ff ff       	call   6868 <set_idt>
    6afc:	83 c4 10             	add    $0x10,%esp
    6aff:	c7 c0 b4 50 00 00    	mov    $0x50b4,%eax
    6b05:	68 8e 00 00 00       	push   $0x8e
    6b0a:	6a 08                	push   $0x8
    6b0c:	50                   	push   %eax
    6b0d:	6a 01                	push   $0x1
    6b0f:	e8 54 fd ff ff       	call   6868 <set_idt>
    6b14:	83 c4 10             	add    $0x10,%esp
    6b17:	c7 c0 be 50 00 00    	mov    $0x50be,%eax
    6b1d:	68 8e 00 00 00       	push   $0x8e
    6b22:	6a 08                	push   $0x8
    6b24:	50                   	push   %eax
    6b25:	6a 02                	push   $0x2
    6b27:	e8 3c fd ff ff       	call   6868 <set_idt>
    6b2c:	83 c4 10             	add    $0x10,%esp
    6b2f:	c7 c0 c8 50 00 00    	mov    $0x50c8,%eax
    6b35:	68 8e 00 00 00       	push   $0x8e
    6b3a:	6a 08                	push   $0x8
    6b3c:	50                   	push   %eax
    6b3d:	6a 03                	push   $0x3
    6b3f:	e8 24 fd ff ff       	call   6868 <set_idt>
    6b44:	83 c4 10             	add    $0x10,%esp
    6b47:	c7 c0 d2 50 00 00    	mov    $0x50d2,%eax
    6b4d:	68 8e 00 00 00       	push   $0x8e
    6b52:	6a 08                	push   $0x8
    6b54:	50                   	push   %eax
    6b55:	6a 04                	push   $0x4
    6b57:	e8 0c fd ff ff       	call   6868 <set_idt>
    6b5c:	83 c4 10             	add    $0x10,%esp
    6b5f:	c7 c0 dc 50 00 00    	mov    $0x50dc,%eax
    6b65:	68 8e 00 00 00       	push   $0x8e
    6b6a:	6a 08                	push   $0x8
    6b6c:	50                   	push   %eax
    6b6d:	6a 05                	push   $0x5
    6b6f:	e8 f4 fc ff ff       	call   6868 <set_idt>
    6b74:	83 c4 10             	add    $0x10,%esp
    6b77:	c7 c0 e6 50 00 00    	mov    $0x50e6,%eax
    6b7d:	68 8e 00 00 00       	push   $0x8e
    6b82:	6a 08                	push   $0x8
    6b84:	50                   	push   %eax
    6b85:	6a 06                	push   $0x6
    6b87:	e8 dc fc ff ff       	call   6868 <set_idt>
    6b8c:	83 c4 10             	add    $0x10,%esp
    6b8f:	c7 c0 f0 50 00 00    	mov    $0x50f0,%eax
    6b95:	68 8e 00 00 00       	push   $0x8e
    6b9a:	6a 08                	push   $0x8
    6b9c:	50                   	push   %eax
    6b9d:	6a 07                	push   $0x7
    6b9f:	e8 c4 fc ff ff       	call   6868 <set_idt>
    6ba4:	83 c4 10             	add    $0x10,%esp
    6ba7:	c7 c0 fa 50 00 00    	mov    $0x50fa,%eax
    6bad:	68 8e 00 00 00       	push   $0x8e
    6bb2:	6a 08                	push   $0x8
    6bb4:	50                   	push   %eax
    6bb5:	6a 08                	push   $0x8
    6bb7:	e8 ac fc ff ff       	call   6868 <set_idt>
    6bbc:	83 c4 10             	add    $0x10,%esp
    6bbf:	c7 c0 02 51 00 00    	mov    $0x5102,%eax
    6bc5:	68 8e 00 00 00       	push   $0x8e
    6bca:	6a 08                	push   $0x8
    6bcc:	50                   	push   %eax
    6bcd:	6a 09                	push   $0x9
    6bcf:	e8 94 fc ff ff       	call   6868 <set_idt>
    6bd4:	83 c4 10             	add    $0x10,%esp
    6bd7:	c7 c0 0c 51 00 00    	mov    $0x510c,%eax
    6bdd:	68 8e 00 00 00       	push   $0x8e
    6be2:	6a 08                	push   $0x8
    6be4:	50                   	push   %eax
    6be5:	6a 0a                	push   $0xa
    6be7:	e8 7c fc ff ff       	call   6868 <set_idt>
    6bec:	83 c4 10             	add    $0x10,%esp
    6bef:	c7 c0 14 51 00 00    	mov    $0x5114,%eax
    6bf5:	68 8e 00 00 00       	push   $0x8e
    6bfa:	6a 08                	push   $0x8
    6bfc:	50                   	push   %eax
    6bfd:	6a 0b                	push   $0xb
    6bff:	e8 64 fc ff ff       	call   6868 <set_idt>
    6c04:	83 c4 10             	add    $0x10,%esp
    6c07:	c7 c0 1c 51 00 00    	mov    $0x511c,%eax
    6c0d:	68 8e 00 00 00       	push   $0x8e
    6c12:	6a 08                	push   $0x8
    6c14:	50                   	push   %eax
    6c15:	6a 0c                	push   $0xc
    6c17:	e8 4c fc ff ff       	call   6868 <set_idt>
    6c1c:	83 c4 10             	add    $0x10,%esp
    6c1f:	c7 c0 24 51 00 00    	mov    $0x5124,%eax
    6c25:	68 8e 00 00 00       	push   $0x8e
    6c2a:	6a 08                	push   $0x8
    6c2c:	50                   	push   %eax
    6c2d:	6a 0d                	push   $0xd
    6c2f:	e8 34 fc ff ff       	call   6868 <set_idt>
    6c34:	83 c4 10             	add    $0x10,%esp
    6c37:	c7 c0 2c 51 00 00    	mov    $0x512c,%eax
    6c3d:	68 8e 00 00 00       	push   $0x8e
    6c42:	6a 08                	push   $0x8
    6c44:	50                   	push   %eax
    6c45:	6a 0e                	push   $0xe
    6c47:	e8 1c fc ff ff       	call   6868 <set_idt>
    6c4c:	83 c4 10             	add    $0x10,%esp
    6c4f:	c7 c0 31 51 00 00    	mov    $0x5131,%eax
    6c55:	68 8e 00 00 00       	push   $0x8e
    6c5a:	6a 08                	push   $0x8
    6c5c:	50                   	push   %eax
    6c5d:	6a 0f                	push   $0xf
    6c5f:	e8 04 fc ff ff       	call   6868 <set_idt>
    6c64:	83 c4 10             	add    $0x10,%esp
    6c67:	c7 c0 38 51 00 00    	mov    $0x5138,%eax
    6c6d:	68 8e 00 00 00       	push   $0x8e
    6c72:	6a 08                	push   $0x8
    6c74:	50                   	push   %eax
    6c75:	6a 10                	push   $0x10
    6c77:	e8 ec fb ff ff       	call   6868 <set_idt>
    6c7c:	83 c4 10             	add    $0x10,%esp
    6c7f:	c7 c0 3f 51 00 00    	mov    $0x513f,%eax
    6c85:	68 8e 00 00 00       	push   $0x8e
    6c8a:	6a 08                	push   $0x8
    6c8c:	50                   	push   %eax
    6c8d:	6a 11                	push   $0x11
    6c8f:	e8 d4 fb ff ff       	call   6868 <set_idt>
    6c94:	83 c4 10             	add    $0x10,%esp
    6c97:	c7 c0 44 51 00 00    	mov    $0x5144,%eax
    6c9d:	68 8e 00 00 00       	push   $0x8e
    6ca2:	6a 08                	push   $0x8
    6ca4:	50                   	push   %eax
    6ca5:	6a 12                	push   $0x12
    6ca7:	e8 bc fb ff ff       	call   6868 <set_idt>
    6cac:	83 c4 10             	add    $0x10,%esp
    6caf:	c7 c0 4b 51 00 00    	mov    $0x514b,%eax
    6cb5:	68 8e 00 00 00       	push   $0x8e
    6cba:	6a 08                	push   $0x8
    6cbc:	50                   	push   %eax
    6cbd:	6a 13                	push   $0x13
    6cbf:	e8 a4 fb ff ff       	call   6868 <set_idt>
    6cc4:	83 c4 10             	add    $0x10,%esp
    6cc7:	c7 c0 52 51 00 00    	mov    $0x5152,%eax
    6ccd:	68 8e 00 00 00       	push   $0x8e
    6cd2:	6a 08                	push   $0x8
    6cd4:	50                   	push   %eax
    6cd5:	6a 14                	push   $0x14
    6cd7:	e8 8c fb ff ff       	call   6868 <set_idt>
    6cdc:	83 c4 10             	add    $0x10,%esp
    6cdf:	c7 c0 59 51 00 00    	mov    $0x5159,%eax
    6ce5:	68 8e 00 00 00       	push   $0x8e
    6cea:	6a 08                	push   $0x8
    6cec:	50                   	push   %eax
    6ced:	6a 15                	push   $0x15
    6cef:	e8 74 fb ff ff       	call   6868 <set_idt>
    6cf4:	83 c4 10             	add    $0x10,%esp
    6cf7:	c7 c0 60 51 00 00    	mov    $0x5160,%eax
    6cfd:	68 8e 00 00 00       	push   $0x8e
    6d02:	6a 08                	push   $0x8
    6d04:	50                   	push   %eax
    6d05:	6a 16                	push   $0x16
    6d07:	e8 5c fb ff ff       	call   6868 <set_idt>
    6d0c:	83 c4 10             	add    $0x10,%esp
    6d0f:	c7 c0 67 51 00 00    	mov    $0x5167,%eax
    6d15:	68 8e 00 00 00       	push   $0x8e
    6d1a:	6a 08                	push   $0x8
    6d1c:	50                   	push   %eax
    6d1d:	6a 17                	push   $0x17
    6d1f:	e8 44 fb ff ff       	call   6868 <set_idt>
    6d24:	83 c4 10             	add    $0x10,%esp
    6d27:	c7 c0 6e 51 00 00    	mov    $0x516e,%eax
    6d2d:	68 8e 00 00 00       	push   $0x8e
    6d32:	6a 08                	push   $0x8
    6d34:	50                   	push   %eax
    6d35:	6a 18                	push   $0x18
    6d37:	e8 2c fb ff ff       	call   6868 <set_idt>
    6d3c:	83 c4 10             	add    $0x10,%esp
    6d3f:	c7 c0 75 51 00 00    	mov    $0x5175,%eax
    6d45:	68 8e 00 00 00       	push   $0x8e
    6d4a:	6a 08                	push   $0x8
    6d4c:	50                   	push   %eax
    6d4d:	6a 19                	push   $0x19
    6d4f:	e8 14 fb ff ff       	call   6868 <set_idt>
    6d54:	83 c4 10             	add    $0x10,%esp
    6d57:	c7 c0 7c 51 00 00    	mov    $0x517c,%eax
    6d5d:	68 8e 00 00 00       	push   $0x8e
    6d62:	6a 08                	push   $0x8
    6d64:	50                   	push   %eax
    6d65:	6a 1a                	push   $0x1a
    6d67:	e8 fc fa ff ff       	call   6868 <set_idt>
    6d6c:	83 c4 10             	add    $0x10,%esp
    6d6f:	c7 c0 83 51 00 00    	mov    $0x5183,%eax
    6d75:	68 8e 00 00 00       	push   $0x8e
    6d7a:	6a 08                	push   $0x8
    6d7c:	50                   	push   %eax
    6d7d:	6a 1b                	push   $0x1b
    6d7f:	e8 e4 fa ff ff       	call   6868 <set_idt>
    6d84:	83 c4 10             	add    $0x10,%esp
    6d87:	c7 c0 8a 51 00 00    	mov    $0x518a,%eax
    6d8d:	68 8e 00 00 00       	push   $0x8e
    6d92:	6a 08                	push   $0x8
    6d94:	50                   	push   %eax
    6d95:	6a 1c                	push   $0x1c
    6d97:	e8 cc fa ff ff       	call   6868 <set_idt>
    6d9c:	83 c4 10             	add    $0x10,%esp
    6d9f:	c7 c0 91 51 00 00    	mov    $0x5191,%eax
    6da5:	68 8e 00 00 00       	push   $0x8e
    6daa:	6a 08                	push   $0x8
    6dac:	50                   	push   %eax
    6dad:	6a 1d                	push   $0x1d
    6daf:	e8 b4 fa ff ff       	call   6868 <set_idt>
    6db4:	83 c4 10             	add    $0x10,%esp
    6db7:	c7 c0 98 51 00 00    	mov    $0x5198,%eax
    6dbd:	68 8e 00 00 00       	push   $0x8e
    6dc2:	6a 08                	push   $0x8
    6dc4:	50                   	push   %eax
    6dc5:	6a 1e                	push   $0x1e
    6dc7:	e8 9c fa ff ff       	call   6868 <set_idt>
    6dcc:	83 c4 10             	add    $0x10,%esp
    6dcf:	c7 c0 9f 51 00 00    	mov    $0x519f,%eax
    6dd5:	68 8e 00 00 00       	push   $0x8e
    6dda:	6a 08                	push   $0x8
    6ddc:	50                   	push   %eax
    6ddd:	6a 1f                	push   $0x1f
    6ddf:	e8 84 fa ff ff       	call   6868 <set_idt>
    6de4:	83 c4 10             	add    $0x10,%esp
    6de7:	c7 c0 dc 51 00 00    	mov    $0x51dc,%eax
    6ded:	68 8e 00 00 00       	push   $0x8e
    6df2:	6a 08                	push   $0x8
    6df4:	50                   	push   %eax
    6df5:	6a 20                	push   $0x20
    6df7:	e8 6c fa ff ff       	call   6868 <set_idt>
    6dfc:	83 c4 10             	add    $0x10,%esp
    6dff:	c7 c0 e3 51 00 00    	mov    $0x51e3,%eax
    6e05:	68 8e 00 00 00       	push   $0x8e
    6e0a:	6a 08                	push   $0x8
    6e0c:	50                   	push   %eax
    6e0d:	6a 21                	push   $0x21
    6e0f:	e8 54 fa ff ff       	call   6868 <set_idt>
    6e14:	83 c4 10             	add    $0x10,%esp
    6e17:	c7 c0 ea 51 00 00    	mov    $0x51ea,%eax
    6e1d:	68 8e 00 00 00       	push   $0x8e
    6e22:	6a 08                	push   $0x8
    6e24:	50                   	push   %eax
    6e25:	6a 22                	push   $0x22
    6e27:	e8 3c fa ff ff       	call   6868 <set_idt>
    6e2c:	83 c4 10             	add    $0x10,%esp
    6e2f:	c7 c0 f1 51 00 00    	mov    $0x51f1,%eax
    6e35:	68 8e 00 00 00       	push   $0x8e
    6e3a:	6a 08                	push   $0x8
    6e3c:	50                   	push   %eax
    6e3d:	6a 23                	push   $0x23
    6e3f:	e8 24 fa ff ff       	call   6868 <set_idt>
    6e44:	83 c4 10             	add    $0x10,%esp
    6e47:	c7 c0 f8 51 00 00    	mov    $0x51f8,%eax
    6e4d:	68 8e 00 00 00       	push   $0x8e
    6e52:	6a 08                	push   $0x8
    6e54:	50                   	push   %eax
    6e55:	6a 24                	push   $0x24
    6e57:	e8 0c fa ff ff       	call   6868 <set_idt>
    6e5c:	83 c4 10             	add    $0x10,%esp
    6e5f:	c7 c0 ff 51 00 00    	mov    $0x51ff,%eax
    6e65:	68 8e 00 00 00       	push   $0x8e
    6e6a:	6a 08                	push   $0x8
    6e6c:	50                   	push   %eax
    6e6d:	6a 25                	push   $0x25
    6e6f:	e8 f4 f9 ff ff       	call   6868 <set_idt>
    6e74:	83 c4 10             	add    $0x10,%esp
    6e77:	c7 c0 06 52 00 00    	mov    $0x5206,%eax
    6e7d:	68 8e 00 00 00       	push   $0x8e
    6e82:	6a 08                	push   $0x8
    6e84:	50                   	push   %eax
    6e85:	6a 26                	push   $0x26
    6e87:	e8 dc f9 ff ff       	call   6868 <set_idt>
    6e8c:	83 c4 10             	add    $0x10,%esp
    6e8f:	c7 c0 0d 52 00 00    	mov    $0x520d,%eax
    6e95:	68 8e 00 00 00       	push   $0x8e
    6e9a:	6a 08                	push   $0x8
    6e9c:	50                   	push   %eax
    6e9d:	6a 27                	push   $0x27
    6e9f:	e8 c4 f9 ff ff       	call   6868 <set_idt>
    6ea4:	83 c4 10             	add    $0x10,%esp
    6ea7:	c7 c0 14 52 00 00    	mov    $0x5214,%eax
    6ead:	68 8e 00 00 00       	push   $0x8e
    6eb2:	6a 08                	push   $0x8
    6eb4:	50                   	push   %eax
    6eb5:	6a 28                	push   $0x28
    6eb7:	e8 ac f9 ff ff       	call   6868 <set_idt>
    6ebc:	83 c4 10             	add    $0x10,%esp
    6ebf:	c7 c0 1b 52 00 00    	mov    $0x521b,%eax
    6ec5:	68 8e 00 00 00       	push   $0x8e
    6eca:	6a 08                	push   $0x8
    6ecc:	50                   	push   %eax
    6ecd:	6a 29                	push   $0x29
    6ecf:	e8 94 f9 ff ff       	call   6868 <set_idt>
    6ed4:	83 c4 10             	add    $0x10,%esp
    6ed7:	c7 c0 22 52 00 00    	mov    $0x5222,%eax
    6edd:	68 8e 00 00 00       	push   $0x8e
    6ee2:	6a 08                	push   $0x8
    6ee4:	50                   	push   %eax
    6ee5:	6a 2a                	push   $0x2a
    6ee7:	e8 7c f9 ff ff       	call   6868 <set_idt>
    6eec:	83 c4 10             	add    $0x10,%esp
    6eef:	c7 c0 29 52 00 00    	mov    $0x5229,%eax
    6ef5:	68 8e 00 00 00       	push   $0x8e
    6efa:	6a 08                	push   $0x8
    6efc:	50                   	push   %eax
    6efd:	6a 2b                	push   $0x2b
    6eff:	e8 64 f9 ff ff       	call   6868 <set_idt>
    6f04:	83 c4 10             	add    $0x10,%esp
    6f07:	c7 c0 30 52 00 00    	mov    $0x5230,%eax
    6f0d:	68 8e 00 00 00       	push   $0x8e
    6f12:	6a 08                	push   $0x8
    6f14:	50                   	push   %eax
    6f15:	6a 2c                	push   $0x2c
    6f17:	e8 4c f9 ff ff       	call   6868 <set_idt>
    6f1c:	83 c4 10             	add    $0x10,%esp
    6f1f:	c7 c0 37 52 00 00    	mov    $0x5237,%eax
    6f25:	68 8e 00 00 00       	push   $0x8e
    6f2a:	6a 08                	push   $0x8
    6f2c:	50                   	push   %eax
    6f2d:	6a 2d                	push   $0x2d
    6f2f:	e8 34 f9 ff ff       	call   6868 <set_idt>
    6f34:	83 c4 10             	add    $0x10,%esp
    6f37:	c7 c0 3e 52 00 00    	mov    $0x523e,%eax
    6f3d:	68 8e 00 00 00       	push   $0x8e
    6f42:	6a 08                	push   $0x8
    6f44:	50                   	push   %eax
    6f45:	6a 2e                	push   $0x2e
    6f47:	e8 1c f9 ff ff       	call   6868 <set_idt>
    6f4c:	83 c4 10             	add    $0x10,%esp
    6f4f:	c7 c0 45 52 00 00    	mov    $0x5245,%eax
    6f55:	68 8e 00 00 00       	push   $0x8e
    6f5a:	6a 08                	push   $0x8
    6f5c:	50                   	push   %eax
    6f5d:	6a 2f                	push   $0x2f
    6f5f:	e8 04 f9 ff ff       	call   6868 <set_idt>
    6f64:	83 c4 10             	add    $0x10,%esp
    6f67:	c7 c0 a6 51 00 00    	mov    $0x51a6,%eax
    6f6d:	68 8e 00 00 00       	push   $0x8e
    6f72:	6a 08                	push   $0x8
    6f74:	50                   	push   %eax
    6f75:	68 ff 00 00 00       	push   $0xff
    6f7a:	e8 e9 f8 ff ff       	call   6868 <set_idt>
    6f7f:	83 c4 10             	add    $0x10,%esp
    6f82:	83 ec 0c             	sub    $0xc,%esp
    6f85:	c7 c0 70 ca 40 00    	mov    $0x40ca70,%eax
    6f8b:	50                   	push   %eax
    6f8c:	e8 06 e1 ff ff       	call   5097 <load_idtr>
    6f91:	83 c4 10             	add    $0x10,%esp
    6f94:	90                   	nop
    6f95:	8b 5d fc             	mov    -0x4(%ebp),%ebx
    6f98:	c9                   	leave  
    6f99:	c3                   	ret    

00006f9a <fork>:
    6f9a:	55                   	push   %ebp
    6f9b:	89 e5                	mov    %esp,%ebp
    6f9d:	83 ec 10             	sub    $0x10,%esp
    6fa0:	e8 43 09 00 00       	call   78e8 <__x86.get_pc_thunk.ax>
    6fa5:	05 cb 19 00 00       	add    $0x19cb,%eax
    6faa:	b8 02 00 00 00       	mov    $0x2,%eax
    6faf:	cd 80                	int    $0x80
    6fb1:	89 45 fc             	mov    %eax,-0x4(%ebp)
    6fb4:	83 7d fc 00          	cmpl   $0x0,-0x4(%ebp)
    6fb8:	78 05                	js     6fbf <fork+0x25>
    6fba:	8b 45 fc             	mov    -0x4(%ebp),%eax
    6fbd:	eb 05                	jmp    6fc4 <fork+0x2a>
    6fbf:	b8 ff ff ff ff       	mov    $0xffffffff,%eax
    6fc4:	c9                   	leave  
    6fc5:	c3                   	ret    

00006fc6 <pause>:
    6fc6:	55                   	push   %ebp
    6fc7:	89 e5                	mov    %esp,%ebp
    6fc9:	83 ec 10             	sub    $0x10,%esp
    6fcc:	e8 17 09 00 00       	call   78e8 <__x86.get_pc_thunk.ax>
    6fd1:	05 9f 19 00 00       	add    $0x199f,%eax
    6fd6:	b8 1d 00 00 00       	mov    $0x1d,%eax
    6fdb:	cd 80                	int    $0x80
    6fdd:	89 45 fc             	mov    %eax,-0x4(%ebp)
    6fe0:	83 7d fc 00          	cmpl   $0x0,-0x4(%ebp)
    6fe4:	78 05                	js     6feb <pause+0x25>
    6fe6:	8b 45 fc             	mov    -0x4(%ebp),%eax
    6fe9:	eb 05                	jmp    6ff0 <pause+0x2a>
    6feb:	b8 ff ff ff ff       	mov    $0xffffffff,%eax
    6ff0:	c9                   	leave  
    6ff1:	c3                   	ret    

00006ff2 <kernel_start>:
    6ff2:	55                   	push   %ebp
    6ff3:	89 e5                	mov    %esp,%ebp
    6ff5:	53                   	push   %ebx
    6ff6:	83 ec 14             	sub    $0x14,%esp
    6ff9:	e8 ee 08 00 00       	call   78ec <__x86.get_pc_thunk.bx>
    6ffe:	81 c3 72 19 00 00    	add    $0x1972,%ebx
    7004:	c7 45 f4 00 00 00 00 	movl   $0x0,-0xc(%ebp)
    700b:	c7 45 f0 00 00 00 00 	movl   $0x0,-0x10(%ebp)
    7012:	83 ec 0c             	sub    $0xc,%esp
    7015:	8d 83 18 ff ff ff    	lea    -0xe8(%ebx),%eax
    701b:	50                   	push   %eax
    701c:	e8 b5 e5 ff ff       	call   55d6 <printk>
    7021:	83 c4 10             	add    $0x10,%esp
    7024:	83 ec 0c             	sub    $0xc,%esp
    7027:	8d 83 3c ff ff ff    	lea    -0xc4(%ebx),%eax
    702d:	50                   	push   %eax
    702e:	e8 a3 e5 ff ff       	call   55d6 <printk>
    7033:	83 c4 10             	add    $0x10,%esp
    7036:	e8 ae f8 ff ff       	call   68e9 <init_gdt>
    703b:	e8 94 f9 ff ff       	call   69d4 <init_idt>
    7040:	e8 52 02 00 00       	call   7297 <init_palette>
    7045:	e8 72 e2 ff ff       	call   52bc <init_keyboard>
    704a:	e8 91 f5 ff ff       	call   65e0 <schedule_init>
    704f:	fb                   	sti    
    7050:	83 ec 08             	sub    $0x8,%esp
    7053:	c7 c0 00 50 00 00    	mov    $0x5000,%eax
    7059:	50                   	push   %eax
    705a:	8d 83 56 ff ff ff    	lea    -0xaa(%ebx),%eax
    7060:	50                   	push   %eax
    7061:	e8 70 e5 ff ff       	call   55d6 <printk>
    7066:	83 c4 10             	add    $0x10,%esp
    7069:	83 ec 08             	sub    $0x8,%esp
    706c:	c7 c0 80 d2 40 00    	mov    $0x40d280,%eax
    7072:	50                   	push   %eax
    7073:	8d 83 72 ff ff ff    	lea    -0x8e(%ebx),%eax
    7079:	50                   	push   %eax
    707a:	e8 57 e5 ff ff       	call   55d6 <printk>
    707f:	83 c4 10             	add    $0x10,%esp
    7082:	c7 c0 80 d2 40 00    	mov    $0x40d280,%eax
    7088:	8d 90 ff 03 00 00    	lea    0x3ff(%eax),%edx
    708e:	c7 c0 00 50 00 00    	mov    $0x5000,%eax
    7094:	29 c2                	sub    %eax,%edx
    7096:	89 d0                	mov    %edx,%eax
    7098:	8d 90 ff 03 00 00    	lea    0x3ff(%eax),%edx
    709e:	85 c0                	test   %eax,%eax
    70a0:	0f 48 c2             	cmovs  %edx,%eax
    70a3:	c1 f8 0a             	sar    $0xa,%eax
    70a6:	83 ec 08             	sub    $0x8,%esp
    70a9:	50                   	push   %eax
    70aa:	8d 83 8e ff ff ff    	lea    -0x72(%ebx),%eax
    70b0:	50                   	push   %eax
    70b1:	e8 20 e5 ff ff       	call   55d6 <printk>
    70b6:	83 c4 10             	add    $0x10,%esp
    70b9:	83 ec 0c             	sub    $0xc,%esp
    70bc:	8d 83 a2 ff ff ff    	lea    -0x5e(%ebx),%eax
    70c2:	50                   	push   %eax
    70c3:	e8 0e e5 ff ff       	call   55d6 <printk>
    70c8:	83 c4 10             	add    $0x10,%esp
    70cb:	e8 22 07 00 00       	call   77f2 <init_pmm>
    70d0:	83 ec 0c             	sub    $0xc,%esp
    70d3:	8d 83 b2 ff ff ff    	lea    -0x4e(%ebx),%eax
    70d9:	50                   	push   %eax
    70da:	e8 f7 e4 ff ff       	call   55d6 <printk>
    70df:	83 c4 10             	add    $0x10,%esp
    70e2:	89 e0                	mov    %esp,%eax
    70e4:	6a 17                	push   $0x17
    70e6:	50                   	push   %eax
    70e7:	9c                   	pushf  
    70e8:	6a 0f                	push   $0xf
    70ea:	68 f0 70 00 00       	push   $0x70f0
    70ef:	cf                   	iret   
    70f0:	b8 17 00 00 00       	mov    $0x17,%eax
    70f5:	8e d8                	mov    %eax,%ds
    70f7:	8e c0                	mov    %eax,%es
    70f9:	8e e0                	mov    %eax,%fs
    70fb:	8e e8                	mov    %eax,%gs
    70fd:	e8 98 fe ff ff       	call   6f9a <fork>
    7102:	e8 bf fe ff ff       	call   6fc6 <pause>
    7107:	eb f9                	jmp    7102 <kernel_start+0x110>

00007109 <outb>:
    7109:	55                   	push   %ebp
    710a:	89 e5                	mov    %esp,%ebp
    710c:	83 ec 08             	sub    $0x8,%esp
    710f:	e8 d4 07 00 00       	call   78e8 <__x86.get_pc_thunk.ax>
    7114:	05 5c 18 00 00       	add    $0x185c,%eax
    7119:	8b 55 08             	mov    0x8(%ebp),%edx
    711c:	8b 45 0c             	mov    0xc(%ebp),%eax
    711f:	66 89 55 fc          	mov    %dx,-0x4(%ebp)
    7123:	66 89 45 f8          	mov    %ax,-0x8(%ebp)
    7127:	0f b7 55 fc          	movzwl -0x4(%ebp),%edx
    712b:	0f b7 45 f8          	movzwl -0x8(%ebp),%eax
    712f:	ee                   	out    %al,(%dx)
    7130:	90                   	nop
    7131:	c9                   	leave  
    7132:	c3                   	ret    

00007133 <inb>:
    7133:	55                   	push   %ebp
    7134:	89 e5                	mov    %esp,%ebp
    7136:	83 ec 14             	sub    $0x14,%esp
    7139:	e8 aa 07 00 00       	call   78e8 <__x86.get_pc_thunk.ax>
    713e:	05 32 18 00 00       	add    $0x1832,%eax
    7143:	8b 45 08             	mov    0x8(%ebp),%eax
    7146:	66 89 45 ec          	mov    %ax,-0x14(%ebp)
    714a:	c6 45 ff 00          	movb   $0x0,-0x1(%ebp)
    714e:	0f b7 45 ec          	movzwl -0x14(%ebp),%eax
    7152:	89 c2                	mov    %eax,%edx
    7154:	ec                   	in     (%dx),%al
    7155:	88 45 ff             	mov    %al,-0x1(%ebp)
    7158:	0f b6 45 ff          	movzbl -0x1(%ebp),%eax
    715c:	c9                   	leave  
    715d:	c3                   	ret    

0000715e <inw>:
    715e:	55                   	push   %ebp
    715f:	89 e5                	mov    %esp,%ebp
    7161:	83 ec 14             	sub    $0x14,%esp
    7164:	e8 7f 07 00 00       	call   78e8 <__x86.get_pc_thunk.ax>
    7169:	05 07 18 00 00       	add    $0x1807,%eax
    716e:	8b 45 08             	mov    0x8(%ebp),%eax
    7171:	66 89 45 ec          	mov    %ax,-0x14(%ebp)
    7175:	66 c7 45 fe 00 00    	movw   $0x0,-0x2(%ebp)
    717b:	0f b7 45 ec          	movzwl -0x14(%ebp),%eax
    717f:	89 c2                	mov    %eax,%edx
    7181:	66 ed                	in     (%dx),%ax
    7183:	66 89 45 fe          	mov    %ax,-0x2(%ebp)
    7187:	0f b7 45 fe          	movzwl -0x2(%ebp),%eax
    718b:	c9                   	leave  
    718c:	c3                   	ret    

0000718d <logo>:
    718d:	55                   	push   %ebp
    718e:	89 e5                	mov    %esp,%ebp
    7190:	53                   	push   %ebx
    7191:	83 ec 24             	sub    $0x24,%esp
    7194:	e8 53 07 00 00       	call   78ec <__x86.get_pc_thunk.bx>
    7199:	81 c3 d7 17 00 00    	add    $0x17d7,%ebx
    719f:	c7 45 e8 00 00 00 00 	movl   $0x0,-0x18(%ebp)
    71a6:	8b 45 e8             	mov    -0x18(%ebp),%eax
    71a9:	89 45 e4             	mov    %eax,-0x1c(%ebp)
    71ac:	c7 45 f4 00 00 00 00 	movl   $0x0,-0xc(%ebp)
    71b3:	e9 85 00 00 00       	jmp    723d <logo+0xb0>
    71b8:	8d 93 10 fd ff ff    	lea    -0x2f0(%ebx),%edx
    71be:	8b 45 f4             	mov    -0xc(%ebp),%eax
    71c1:	01 d0                	add    %edx,%eax
    71c3:	0f b6 00             	movzbl (%eax),%eax
    71c6:	88 45 ef             	mov    %al,-0x11(%ebp)
    71c9:	c7 45 f0 00 00 00 00 	movl   $0x0,-0x10(%ebp)
    71d0:	eb 61                	jmp    7233 <logo+0xa6>
    71d2:	80 7d ef 00          	cmpb   $0x0,-0x11(%ebp)
    71d6:	79 28                	jns    7200 <logo+0x73>
    71d8:	8b 45 f0             	mov    -0x10(%ebp),%eax
    71db:	8d 88 00 00 0a 00    	lea    0xa0000(%eax),%ecx
    71e1:	8b 55 f4             	mov    -0xc(%ebp),%edx
    71e4:	89 d0                	mov    %edx,%eax
    71e6:	c1 e0 02             	shl    $0x2,%eax
    71e9:	01 d0                	add    %edx,%eax
    71eb:	c1 e0 06             	shl    $0x6,%eax
    71ee:	01 c8                	add    %ecx,%eax
    71f0:	83 ec 08             	sub    $0x8,%esp
    71f3:	6a 01                	push   $0x1
    71f5:	50                   	push   %eax
    71f6:	e8 a4 de ff ff       	call   509f <write_vram>
    71fb:	83 c4 10             	add    $0x10,%esp
    71fe:	eb 26                	jmp    7226 <logo+0x99>
    7200:	8b 45 f0             	mov    -0x10(%ebp),%eax
    7203:	8d 88 00 00 0a 00    	lea    0xa0000(%eax),%ecx
    7209:	8b 55 f4             	mov    -0xc(%ebp),%edx
    720c:	89 d0                	mov    %edx,%eax
    720e:	c1 e0 02             	shl    $0x2,%eax
    7211:	01 d0                	add    %edx,%eax
    7213:	c1 e0 06             	shl    $0x6,%eax
    7216:	01 c8                	add    %ecx,%eax
    7218:	83 ec 08             	sub    $0x8,%esp
    721b:	6a 00                	push   $0x0
    721d:	50                   	push   %eax
    721e:	e8 7c de ff ff       	call   509f <write_vram>
    7223:	83 c4 10             	add    $0x10,%esp
    7226:	0f be 45 ef          	movsbl -0x11(%ebp),%eax
    722a:	01 c0                	add    %eax,%eax
    722c:	88 45 ef             	mov    %al,-0x11(%ebp)
    722f:	83 45 f0 01          	addl   $0x1,-0x10(%ebp)
    7233:	83 7d f0 07          	cmpl   $0x7,-0x10(%ebp)
    7237:	7e 99                	jle    71d2 <logo+0x45>
    7239:	83 45 f4 01          	addl   $0x1,-0xc(%ebp)
    723d:	83 7d f4 0f          	cmpl   $0xf,-0xc(%ebp)
    7241:	0f 8e 71 ff ff ff    	jle    71b8 <logo+0x2b>
    7247:	90                   	nop
    7248:	8b 5d fc             	mov    -0x4(%ebp),%ebx
    724b:	c9                   	leave  
    724c:	c3                   	ret    

0000724d <init_vmm>:
    724d:	55                   	push   %ebp
    724e:	89 e5                	mov    %esp,%ebp
    7250:	83 ec 10             	sub    $0x10,%esp
    7253:	e8 90 06 00 00       	call   78e8 <__x86.get_pc_thunk.ax>
    7258:	05 18 17 00 00       	add    $0x1718,%eax
    725d:	c7 45 fc 00 00 00 00 	movl   $0x0,-0x4(%ebp)
    7264:	c7 45 fc 00 00 00 00 	movl   $0x0,-0x4(%ebp)
    726b:	eb 1e                	jmp    728b <init_vmm+0x3e>
    726d:	8b 90 20 fd ff ff    	mov    -0x2e0(%eax),%edx
    7273:	8b 4d fc             	mov    -0x4(%ebp),%ecx
    7276:	c1 e1 0e             	shl    $0xe,%ecx
    7279:	01 ca                	add    %ecx,%edx
    727b:	89 d1                	mov    %edx,%ecx
    727d:	8b 55 fc             	mov    -0x4(%ebp),%edx
    7280:	89 8c 90 90 24 00 00 	mov    %ecx,0x2490(%eax,%edx,4)
    7287:	83 45 fc 01          	addl   $0x1,-0x4(%ebp)
    728b:	81 7d fc ff 03 00 00 	cmpl   $0x3ff,-0x4(%ebp)
    7292:	7e d9                	jle    726d <init_vmm+0x20>
    7294:	90                   	nop
    7295:	c9                   	leave  
    7296:	c3                   	ret    

00007297 <init_palette>:
    7297:	55                   	push   %ebp
    7298:	89 e5                	mov    %esp,%ebp
    729a:	83 ec 38             	sub    $0x38,%esp
    729d:	e8 46 06 00 00       	call   78e8 <__x86.get_pc_thunk.ax>
    72a2:	05 ce 16 00 00       	add    $0x16ce,%eax
    72a7:	c6 45 c8 00          	movb   $0x0,-0x38(%ebp)
    72ab:	c6 45 c9 00          	movb   $0x0,-0x37(%ebp)
    72af:	c6 45 ca 00          	movb   $0x0,-0x36(%ebp)
    72b3:	c6 45 cb ff          	movb   $0xff,-0x35(%ebp)
    72b7:	c6 45 cc 00          	movb   $0x0,-0x34(%ebp)
    72bb:	c6 45 cd 00          	movb   $0x0,-0x33(%ebp)
    72bf:	c6 45 ce 00          	movb   $0x0,-0x32(%ebp)
    72c3:	c6 45 cf ff          	movb   $0xff,-0x31(%ebp)
    72c7:	c6 45 d0 00          	movb   $0x0,-0x30(%ebp)
    72cb:	c6 45 d1 ff          	movb   $0xff,-0x2f(%ebp)
    72cf:	c6 45 d2 ff          	movb   $0xff,-0x2e(%ebp)
    72d3:	c6 45 d3 00          	movb   $0x0,-0x2d(%ebp)
    72d7:	c6 45 d4 00          	movb   $0x0,-0x2c(%ebp)
    72db:	c6 45 d5 00          	movb   $0x0,-0x2b(%ebp)
    72df:	c6 45 d6 ff          	movb   $0xff,-0x2a(%ebp)
    72e3:	c6 45 d7 ff          	movb   $0xff,-0x29(%ebp)
    72e7:	c6 45 d8 00          	movb   $0x0,-0x28(%ebp)
    72eb:	c6 45 d9 ff          	movb   $0xff,-0x27(%ebp)
    72ef:	c6 45 da 00          	movb   $0x0,-0x26(%ebp)
    72f3:	c6 45 db ff          	movb   $0xff,-0x25(%ebp)
    72f7:	c6 45 dc ff          	movb   $0xff,-0x24(%ebp)
    72fb:	c6 45 dd ff          	movb   $0xff,-0x23(%ebp)
    72ff:	c6 45 de ff          	movb   $0xff,-0x22(%ebp)
    7303:	c6 45 df ff          	movb   $0xff,-0x21(%ebp)
    7307:	c6 45 e0 c6          	movb   $0xc6,-0x20(%ebp)
    730b:	c6 45 e1 c6          	movb   $0xc6,-0x1f(%ebp)
    730f:	c6 45 e2 c6          	movb   $0xc6,-0x1e(%ebp)
    7313:	c6 45 e3 84          	movb   $0x84,-0x1d(%ebp)
    7317:	c6 45 e4 00          	movb   $0x0,-0x1c(%ebp)
    731b:	c6 45 e5 00          	movb   $0x0,-0x1b(%ebp)
    731f:	c6 45 e6 00          	movb   $0x0,-0x1a(%ebp)
    7323:	c6 45 e7 84          	movb   $0x84,-0x19(%ebp)
    7327:	c6 45 e8 00          	movb   $0x0,-0x18(%ebp)
    732b:	c6 45 e9 84          	movb   $0x84,-0x17(%ebp)
    732f:	c6 45 ea 84          	movb   $0x84,-0x16(%ebp)
    7333:	c6 45 eb 00          	movb   $0x0,-0x15(%ebp)
    7337:	c6 45 ec 00          	movb   $0x0,-0x14(%ebp)
    733b:	c6 45 ed 00          	movb   $0x0,-0x13(%ebp)
    733f:	c6 45 ee 84          	movb   $0x84,-0x12(%ebp)
    7343:	c6 45 ef 84          	movb   $0x84,-0x11(%ebp)
    7347:	c6 45 f0 00          	movb   $0x0,-0x10(%ebp)
    734b:	c6 45 f1 84          	movb   $0x84,-0xf(%ebp)
    734f:	c6 45 f2 00          	movb   $0x0,-0xe(%ebp)
    7353:	c6 45 f3 84          	movb   $0x84,-0xd(%ebp)
    7357:	c6 45 f4 84          	movb   $0x84,-0xc(%ebp)
    735b:	c6 45 f5 84          	movb   $0x84,-0xb(%ebp)
    735f:	c6 45 f6 84          	movb   $0x84,-0xa(%ebp)
    7363:	c6 45 f7 84          	movb   $0x84,-0x9(%ebp)
    7367:	83 ec 0c             	sub    $0xc,%esp
    736a:	8d 45 c8             	lea    -0x38(%ebp),%eax
    736d:	50                   	push   %eax
    736e:	e8 06 00 00 00       	call   7379 <set_palette>
    7373:	83 c4 10             	add    $0x10,%esp
    7376:	90                   	nop
    7377:	c9                   	leave  
    7378:	c3                   	ret    

00007379 <set_palette>:
    7379:	55                   	push   %ebp
    737a:	89 e5                	mov    %esp,%ebp
    737c:	53                   	push   %ebx
    737d:	83 ec 14             	sub    $0x14,%esp
    7380:	e8 67 05 00 00       	call   78ec <__x86.get_pc_thunk.bx>
    7385:	81 c3 eb 15 00 00    	add    $0x15eb,%ebx
    738b:	fa                   	cli    
    738c:	83 ec 08             	sub    $0x8,%esp
    738f:	6a 00                	push   $0x0
    7391:	68 c8 03 00 00       	push   $0x3c8
    7396:	e8 6e fd ff ff       	call   7109 <outb>
    739b:	83 c4 10             	add    $0x10,%esp
    739e:	c7 45 f4 00 00 00 00 	movl   $0x0,-0xc(%ebp)
    73a5:	eb 65                	jmp    740c <set_palette+0x93>
    73a7:	8b 45 08             	mov    0x8(%ebp),%eax
    73aa:	0f b6 00             	movzbl (%eax),%eax
    73ad:	c0 e8 02             	shr    $0x2,%al
    73b0:	0f b6 c0             	movzbl %al,%eax
    73b3:	83 ec 08             	sub    $0x8,%esp
    73b6:	50                   	push   %eax
    73b7:	68 c9 03 00 00       	push   $0x3c9
    73bc:	e8 48 fd ff ff       	call   7109 <outb>
    73c1:	83 c4 10             	add    $0x10,%esp
    73c4:	8b 45 08             	mov    0x8(%ebp),%eax
    73c7:	83 c0 01             	add    $0x1,%eax
    73ca:	0f b6 00             	movzbl (%eax),%eax
    73cd:	c0 e8 02             	shr    $0x2,%al
    73d0:	0f b6 c0             	movzbl %al,%eax
    73d3:	83 ec 08             	sub    $0x8,%esp
    73d6:	50                   	push   %eax
    73d7:	68 c9 03 00 00       	push   $0x3c9
    73dc:	e8 28 fd ff ff       	call   7109 <outb>
    73e1:	83 c4 10             	add    $0x10,%esp
    73e4:	8b 45 08             	mov    0x8(%ebp),%eax
    73e7:	83 c0 02             	add    $0x2,%eax
    73ea:	0f b6 00             	movzbl (%eax),%eax
    73ed:	c0 e8 02             	shr    $0x2,%al
    73f0:	0f b6 c0             	movzbl %al,%eax
    73f3:	83 ec 08             	sub    $0x8,%esp
    73f6:	50                   	push   %eax
    73f7:	68 c9 03 00 00       	push   $0x3c9
    73fc:	e8 08 fd ff ff       	call   7109 <outb>
    7401:	83 c4 10             	add    $0x10,%esp
    7404:	83 45 08 03          	addl   $0x3,0x8(%ebp)
    7408:	83 45 f4 01          	addl   $0x1,-0xc(%ebp)
    740c:	83 7d f4 0f          	cmpl   $0xf,-0xc(%ebp)
    7410:	7e 95                	jle    73a7 <set_palette+0x2e>
    7412:	90                   	nop
    7413:	8b 5d fc             	mov    -0x4(%ebp),%ebx
    7416:	c9                   	leave  
    7417:	c3                   	ret    

00007418 <console_clear>:
    7418:	55                   	push   %ebp
    7419:	89 e5                	mov    %esp,%ebp
    741b:	83 ec 18             	sub    $0x18,%esp
    741e:	e8 c5 04 00 00       	call   78e8 <__x86.get_pc_thunk.ax>
    7423:	05 4d 15 00 00       	add    $0x154d,%eax
    7428:	c6 45 f3 07          	movb   $0x7,-0xd(%ebp)
    742c:	0f b6 55 f3          	movzbl -0xd(%ebp),%edx
    7430:	c1 e2 08             	shl    $0x8,%edx
    7433:	83 ca 20             	or     $0x20,%edx
    7436:	66 89 55 f0          	mov    %dx,-0x10(%ebp)
    743a:	c7 45 f4 00 00 00 00 	movl   $0x0,-0xc(%ebp)
    7441:	eb 18                	jmp    745b <console_clear+0x43>
    7443:	8b 90 24 fd ff ff    	mov    -0x2dc(%eax),%edx
    7449:	8b 4d f4             	mov    -0xc(%ebp),%ecx
    744c:	01 c9                	add    %ecx,%ecx
    744e:	01 d1                	add    %edx,%ecx
    7450:	0f b7 55 f0          	movzwl -0x10(%ebp),%edx
    7454:	66 89 11             	mov    %dx,(%ecx)
    7457:	83 45 f4 01          	addl   $0x1,-0xc(%ebp)
    745b:	81 7d f4 cf 07 00 00 	cmpl   $0x7cf,-0xc(%ebp)
    7462:	7e df                	jle    7443 <console_clear+0x2b>
    7464:	83 ec 08             	sub    $0x8,%esp
    7467:	6a 00                	push   $0x0
    7469:	6a 00                	push   $0x0
    746b:	e8 5d 01 00 00       	call   75cd <console_movecursor>
    7470:	83 c4 10             	add    $0x10,%esp
    7473:	90                   	nop
    7474:	c9                   	leave  
    7475:	c3                   	ret    

00007476 <console_puts>:
    7476:	55                   	push   %ebp
    7477:	89 e5                	mov    %esp,%ebp
    7479:	56                   	push   %esi
    747a:	53                   	push   %ebx
    747b:	83 ec 20             	sub    $0x20,%esp
    747e:	e8 69 04 00 00       	call   78ec <__x86.get_pc_thunk.bx>
    7483:	81 c3 ed 14 00 00    	add    $0x14ed,%ebx
    7489:	8b 55 0c             	mov    0xc(%ebp),%edx
    748c:	8b 45 10             	mov    0x10(%ebp),%eax
    748f:	88 55 e4             	mov    %dl,-0x1c(%ebp)
    7492:	88 45 e0             	mov    %al,-0x20(%ebp)
    7495:	c7 45 f4 00 00 00 00 	movl   $0x0,-0xc(%ebp)
    749c:	c7 45 f0 00 00 00 00 	movl   $0x0,-0x10(%ebp)
    74a3:	c7 45 ec 00 00 00 00 	movl   $0x0,-0x14(%ebp)
    74aa:	0f b6 45 e4          	movzbl -0x1c(%ebp),%eax
    74ae:	c1 e0 04             	shl    $0x4,%eax
    74b1:	89 c2                	mov    %eax,%edx
    74b3:	0f b6 45 e0          	movzbl -0x20(%ebp),%eax
    74b7:	83 e0 0f             	and    $0xf,%eax
    74ba:	09 d0                	or     %edx,%eax
    74bc:	88 45 eb             	mov    %al,-0x15(%ebp)
    74bf:	66 c7 45 e8 00 00    	movw   $0x0,-0x18(%ebp)
    74c5:	e8 8a 01 00 00       	call   7654 <console_readcursor>
    74ca:	66 89 45 e8          	mov    %ax,-0x18(%ebp)
    74ce:	0f b7 4d e8          	movzwl -0x18(%ebp),%ecx
    74d2:	0f b7 c1             	movzwl %cx,%eax
    74d5:	69 c0 cd cc 00 00    	imul   $0xcccd,%eax,%eax
    74db:	c1 e8 10             	shr    $0x10,%eax
    74de:	89 c2                	mov    %eax,%edx
    74e0:	66 c1 ea 06          	shr    $0x6,%dx
    74e4:	89 d0                	mov    %edx,%eax
    74e6:	c1 e0 02             	shl    $0x2,%eax
    74e9:	01 d0                	add    %edx,%eax
    74eb:	c1 e0 04             	shl    $0x4,%eax
    74ee:	29 c1                	sub    %eax,%ecx
    74f0:	89 ca                	mov    %ecx,%edx
    74f2:	0f b7 c2             	movzwl %dx,%eax
    74f5:	89 45 f0             	mov    %eax,-0x10(%ebp)
    74f8:	0f b7 45 e8          	movzwl -0x18(%ebp),%eax
    74fc:	0f b7 c0             	movzwl %ax,%eax
    74ff:	69 c0 cd cc 00 00    	imul   $0xcccd,%eax,%eax
    7505:	c1 e8 10             	shr    $0x10,%eax
    7508:	66 c1 e8 06          	shr    $0x6,%ax
    750c:	0f b7 c0             	movzwl %ax,%eax
    750f:	89 45 ec             	mov    %eax,-0x14(%ebp)
    7512:	e9 9b 00 00 00       	jmp    75b2 <console_puts+0x13c>
    7517:	8b 55 f4             	mov    -0xc(%ebp),%edx
    751a:	8b 45 08             	mov    0x8(%ebp),%eax
    751d:	01 d0                	add    %edx,%eax
    751f:	0f b6 00             	movzbl (%eax),%eax
    7522:	3c 0a                	cmp    $0xa,%al
    7524:	75 0f                	jne    7535 <console_puts+0xbf>
    7526:	83 45 ec 01          	addl   $0x1,-0x14(%ebp)
    752a:	c7 45 f0 00 00 00 00 	movl   $0x0,-0x10(%ebp)
    7531:	83 45 f4 01          	addl   $0x1,-0xc(%ebp)
    7535:	8b 55 f4             	mov    -0xc(%ebp),%edx
    7538:	8b 45 08             	mov    0x8(%ebp),%eax
    753b:	01 d0                	add    %edx,%eax
    753d:	0f b6 00             	movzbl (%eax),%eax
    7540:	3c 0a                	cmp    $0xa,%al
    7542:	74 d3                	je     7517 <console_puts+0xa1>
    7544:	8b 55 f4             	mov    -0xc(%ebp),%edx
    7547:	8b 45 08             	mov    0x8(%ebp),%eax
    754a:	01 d0                	add    %edx,%eax
    754c:	0f b6 00             	movzbl (%eax),%eax
    754f:	84 c0                	test   %al,%al
    7551:	74 4e                	je     75a1 <console_puts+0x12b>
    7553:	8b 55 f4             	mov    -0xc(%ebp),%edx
    7556:	8b 45 08             	mov    0x8(%ebp),%eax
    7559:	01 d0                	add    %edx,%eax
    755b:	0f b6 00             	movzbl (%eax),%eax
    755e:	0f b6 c0             	movzbl %al,%eax
    7561:	0f b6 55 eb          	movzbl -0x15(%ebp),%edx
    7565:	c1 e2 08             	shl    $0x8,%edx
    7568:	09 d0                	or     %edx,%eax
    756a:	89 c6                	mov    %eax,%esi
    756c:	8b 8b 24 fd ff ff    	mov    -0x2dc(%ebx),%ecx
    7572:	8b 55 ec             	mov    -0x14(%ebp),%edx
    7575:	89 d0                	mov    %edx,%eax
    7577:	c1 e0 02             	shl    $0x2,%eax
    757a:	01 d0                	add    %edx,%eax
    757c:	c1 e0 04             	shl    $0x4,%eax
    757f:	89 c2                	mov    %eax,%edx
    7581:	8b 45 f0             	mov    -0x10(%ebp),%eax
    7584:	01 d0                	add    %edx,%eax
    7586:	01 c0                	add    %eax,%eax
    7588:	01 c8                	add    %ecx,%eax
    758a:	89 f2                	mov    %esi,%edx
    758c:	66 89 10             	mov    %dx,(%eax)
    758f:	83 45 f4 01          	addl   $0x1,-0xc(%ebp)
    7593:	83 45 f0 01          	addl   $0x1,-0x10(%ebp)
    7597:	83 7d f0 4e          	cmpl   $0x4e,-0x10(%ebp)
    759b:	7e 04                	jle    75a1 <console_puts+0x12b>
    759d:	83 45 ec 01          	addl   $0x1,-0x14(%ebp)
    75a1:	83 ec 08             	sub    $0x8,%esp
    75a4:	ff 75 ec             	pushl  -0x14(%ebp)
    75a7:	ff 75 f0             	pushl  -0x10(%ebp)
    75aa:	e8 1e 00 00 00       	call   75cd <console_movecursor>
    75af:	83 c4 10             	add    $0x10,%esp
    75b2:	8b 55 f4             	mov    -0xc(%ebp),%edx
    75b5:	8b 45 08             	mov    0x8(%ebp),%eax
    75b8:	01 d0                	add    %edx,%eax
    75ba:	0f b6 00             	movzbl (%eax),%eax
    75bd:	84 c0                	test   %al,%al
    75bf:	0f 85 52 ff ff ff    	jne    7517 <console_puts+0xa1>
    75c5:	90                   	nop
    75c6:	8d 65 f8             	lea    -0x8(%ebp),%esp
    75c9:	5b                   	pop    %ebx
    75ca:	5e                   	pop    %esi
    75cb:	5d                   	pop    %ebp
    75cc:	c3                   	ret    

000075cd <console_movecursor>:
    75cd:	55                   	push   %ebp
    75ce:	89 e5                	mov    %esp,%ebp
    75d0:	53                   	push   %ebx
    75d1:	83 ec 14             	sub    $0x14,%esp
    75d4:	e8 13 03 00 00       	call   78ec <__x86.get_pc_thunk.bx>
    75d9:	81 c3 97 13 00 00    	add    $0x1397,%ebx
    75df:	8b 45 0c             	mov    0xc(%ebp),%eax
    75e2:	89 c2                	mov    %eax,%edx
    75e4:	89 d0                	mov    %edx,%eax
    75e6:	c1 e0 02             	shl    $0x2,%eax
    75e9:	01 d0                	add    %edx,%eax
    75eb:	c1 e0 04             	shl    $0x4,%eax
    75ee:	89 c2                	mov    %eax,%edx
    75f0:	8b 45 08             	mov    0x8(%ebp),%eax
    75f3:	01 d0                	add    %edx,%eax
    75f5:	66 89 45 f6          	mov    %ax,-0xa(%ebp)
    75f9:	83 ec 08             	sub    $0x8,%esp
    75fc:	6a 0e                	push   $0xe
    75fe:	68 d4 03 00 00       	push   $0x3d4
    7603:	e8 01 fb ff ff       	call   7109 <outb>
    7608:	83 c4 10             	add    $0x10,%esp
    760b:	0f b7 45 f6          	movzwl -0xa(%ebp),%eax
    760f:	66 c1 e8 08          	shr    $0x8,%ax
    7613:	0f b7 c0             	movzwl %ax,%eax
    7616:	83 ec 08             	sub    $0x8,%esp
    7619:	50                   	push   %eax
    761a:	68 d5 03 00 00       	push   $0x3d5
    761f:	e8 e5 fa ff ff       	call   7109 <outb>
    7624:	83 c4 10             	add    $0x10,%esp
    7627:	83 ec 08             	sub    $0x8,%esp
    762a:	6a 0f                	push   $0xf
    762c:	68 d4 03 00 00       	push   $0x3d4
    7631:	e8 d3 fa ff ff       	call   7109 <outb>
    7636:	83 c4 10             	add    $0x10,%esp
    7639:	0f b7 45 f6          	movzwl -0xa(%ebp),%eax
    763d:	83 ec 08             	sub    $0x8,%esp
    7640:	50                   	push   %eax
    7641:	68 d5 03 00 00       	push   $0x3d5
    7646:	e8 be fa ff ff       	call   7109 <outb>
    764b:	83 c4 10             	add    $0x10,%esp
    764e:	90                   	nop
    764f:	8b 5d fc             	mov    -0x4(%ebp),%ebx
    7652:	c9                   	leave  
    7653:	c3                   	ret    

00007654 <console_readcursor>:
    7654:	55                   	push   %ebp
    7655:	89 e5                	mov    %esp,%ebp
    7657:	53                   	push   %ebx
    7658:	83 ec 14             	sub    $0x14,%esp
    765b:	e8 8c 02 00 00       	call   78ec <__x86.get_pc_thunk.bx>
    7660:	81 c3 10 13 00 00    	add    $0x1310,%ebx
    7666:	c6 45 f7 00          	movb   $0x0,-0x9(%ebp)
    766a:	c6 45 f6 00          	movb   $0x0,-0xa(%ebp)
    766e:	83 ec 08             	sub    $0x8,%esp
    7671:	6a 0e                	push   $0xe
    7673:	68 d4 03 00 00       	push   $0x3d4
    7678:	e8 8c fa ff ff       	call   7109 <outb>
    767d:	83 c4 10             	add    $0x10,%esp
    7680:	83 ec 0c             	sub    $0xc,%esp
    7683:	68 d5 03 00 00       	push   $0x3d5
    7688:	e8 a6 fa ff ff       	call   7133 <inb>
    768d:	83 c4 10             	add    $0x10,%esp
    7690:	88 45 f6             	mov    %al,-0xa(%ebp)
    7693:	83 ec 08             	sub    $0x8,%esp
    7696:	6a 0f                	push   $0xf
    7698:	68 d4 03 00 00       	push   $0x3d4
    769d:	e8 67 fa ff ff       	call   7109 <outb>
    76a2:	83 c4 10             	add    $0x10,%esp
    76a5:	83 ec 0c             	sub    $0xc,%esp
    76a8:	68 d5 03 00 00       	push   $0x3d5
    76ad:	e8 81 fa ff ff       	call   7133 <inb>
    76b2:	83 c4 10             	add    $0x10,%esp
    76b5:	88 45 f7             	mov    %al,-0x9(%ebp)
    76b8:	0f b6 45 f6          	movzbl -0xa(%ebp),%eax
    76bc:	66 89 45 f4          	mov    %ax,-0xc(%ebp)
    76c0:	0f b7 45 f4          	movzwl -0xc(%ebp),%eax
    76c4:	c1 e0 08             	shl    $0x8,%eax
    76c7:	89 c2                	mov    %eax,%edx
    76c9:	0f b6 45 f7          	movzbl -0x9(%ebp),%eax
    76cd:	09 d0                	or     %edx,%eax
    76cf:	66 89 45 f4          	mov    %ax,-0xc(%ebp)
    76d3:	0f b7 45 f4          	movzwl -0xc(%ebp),%eax
    76d7:	8b 5d fc             	mov    -0x4(%ebp),%ebx
    76da:	c9                   	leave  
    76db:	c3                   	ret    

000076dc <isr_handler>:
    76dc:	55                   	push   %ebp
    76dd:	89 e5                	mov    %esp,%ebp
    76df:	53                   	push   %ebx
    76e0:	83 ec 04             	sub    $0x4,%esp
    76e3:	e8 00 02 00 00       	call   78e8 <__x86.get_pc_thunk.ax>
    76e8:	05 88 12 00 00       	add    $0x1288,%eax
    76ed:	8b 55 08             	mov    0x8(%ebp),%edx
    76f0:	8b 4a 24             	mov    0x24(%edx),%ecx
    76f3:	c7 c2 40 be 40 00    	mov    $0x40be40,%edx
    76f9:	8b 14 8a             	mov    (%edx,%ecx,4),%edx
    76fc:	85 d2                	test   %edx,%edx
    76fe:	74 1c                	je     771c <isr_handler+0x40>
    7700:	8b 55 08             	mov    0x8(%ebp),%edx
    7703:	8b 52 24             	mov    0x24(%edx),%edx
    7706:	c7 c0 40 be 40 00    	mov    $0x40be40,%eax
    770c:	8b 04 90             	mov    (%eax,%edx,4),%eax
    770f:	83 ec 0c             	sub    $0xc,%esp
    7712:	ff 75 08             	pushl  0x8(%ebp)
    7715:	ff d0                	call   *%eax
    7717:	83 c4 10             	add    $0x10,%esp
    771a:	eb 1b                	jmp    7737 <isr_handler+0x5b>
    771c:	8b 55 08             	mov    0x8(%ebp),%edx
    771f:	8b 52 24             	mov    0x24(%edx),%edx
    7722:	83 ec 08             	sub    $0x8,%esp
    7725:	52                   	push   %edx
    7726:	8d 90 c8 ff ff ff    	lea    -0x38(%eax),%edx
    772c:	52                   	push   %edx
    772d:	89 c3                	mov    %eax,%ebx
    772f:	e8 a2 de ff ff       	call   55d6 <printk>
    7734:	83 c4 10             	add    $0x10,%esp
    7737:	90                   	nop
    7738:	8b 5d fc             	mov    -0x4(%ebp),%ebx
    773b:	c9                   	leave  
    773c:	c3                   	ret    

0000773d <irq_handler>:
    773d:	55                   	push   %ebp
    773e:	89 e5                	mov    %esp,%ebp
    7740:	53                   	push   %ebx
    7741:	83 ec 04             	sub    $0x4,%esp
    7744:	e8 a3 01 00 00       	call   78ec <__x86.get_pc_thunk.bx>
    7749:	81 c3 27 12 00 00    	add    $0x1227,%ebx
    774f:	8b 45 08             	mov    0x8(%ebp),%eax
    7752:	8b 40 24             	mov    0x24(%eax),%eax
    7755:	83 f8 28             	cmp    $0x28,%eax
    7758:	76 12                	jbe    776c <irq_handler+0x2f>
    775a:	83 ec 08             	sub    $0x8,%esp
    775d:	6a 20                	push   $0x20
    775f:	68 a0 00 00 00       	push   $0xa0
    7764:	e8 a0 f9 ff ff       	call   7109 <outb>
    7769:	83 c4 10             	add    $0x10,%esp
    776c:	83 ec 08             	sub    $0x8,%esp
    776f:	6a 20                	push   $0x20
    7771:	6a 20                	push   $0x20
    7773:	e8 91 f9 ff ff       	call   7109 <outb>
    7778:	83 c4 10             	add    $0x10,%esp
    777b:	8b 45 08             	mov    0x8(%ebp),%eax
    777e:	8b 50 24             	mov    0x24(%eax),%edx
    7781:	c7 c0 40 be 40 00    	mov    $0x40be40,%eax
    7787:	8b 04 90             	mov    (%eax,%edx,4),%eax
    778a:	85 c0                	test   %eax,%eax
    778c:	74 1c                	je     77aa <irq_handler+0x6d>
    778e:	8b 45 08             	mov    0x8(%ebp),%eax
    7791:	8b 50 24             	mov    0x24(%eax),%edx
    7794:	c7 c0 40 be 40 00    	mov    $0x40be40,%eax
    779a:	8b 04 90             	mov    (%eax,%edx,4),%eax
    779d:	83 ec 0c             	sub    $0xc,%esp
    77a0:	ff 75 08             	pushl  0x8(%ebp)
    77a3:	ff d0                	call   *%eax
    77a5:	83 c4 10             	add    $0x10,%esp
    77a8:	eb 19                	jmp    77c3 <irq_handler+0x86>
    77aa:	8b 45 08             	mov    0x8(%ebp),%eax
    77ad:	8b 40 24             	mov    0x24(%eax),%eax
    77b0:	83 ec 08             	sub    $0x8,%esp
    77b3:	50                   	push   %eax
    77b4:	8d 83 e7 ff ff ff    	lea    -0x19(%ebx),%eax
    77ba:	50                   	push   %eax
    77bb:	e8 16 de ff ff       	call   55d6 <printk>
    77c0:	83 c4 10             	add    $0x10,%esp
    77c3:	90                   	nop
    77c4:	8b 5d fc             	mov    -0x4(%ebp),%ebx
    77c7:	c9                   	leave  
    77c8:	c3                   	ret    

000077c9 <register_interrupt_handler>:
    77c9:	55                   	push   %ebp
    77ca:	89 e5                	mov    %esp,%ebp
    77cc:	83 ec 04             	sub    $0x4,%esp
    77cf:	e8 14 01 00 00       	call   78e8 <__x86.get_pc_thunk.ax>
    77d4:	05 9c 11 00 00       	add    $0x119c,%eax
    77d9:	8b 55 08             	mov    0x8(%ebp),%edx
    77dc:	88 55 fc             	mov    %dl,-0x4(%ebp)
    77df:	0f b6 55 fc          	movzbl -0x4(%ebp),%edx
    77e3:	c7 c0 40 be 40 00    	mov    $0x40be40,%eax
    77e9:	8b 4d 0c             	mov    0xc(%ebp),%ecx
    77ec:	89 0c 90             	mov    %ecx,(%eax,%edx,4)
    77ef:	90                   	nop
    77f0:	c9                   	leave  
    77f1:	c3                   	ret    

000077f2 <init_pmm>:
    77f2:	55                   	push   %ebp
    77f3:	89 e5                	mov    %esp,%ebp
    77f5:	53                   	push   %ebx
    77f6:	83 ec 14             	sub    $0x14,%esp
    77f9:	e8 ee 00 00 00       	call   78ec <__x86.get_pc_thunk.bx>
    77fe:	81 c3 72 11 00 00    	add    $0x1172,%ebx
    7804:	c7 45 f4 00 00 00 00 	movl   $0x0,-0xc(%ebp)
    780b:	c7 83 b4 34 40 00 00 	movl   $0x0,0x4034b4(%ebx)
    7812:	00 00 00 
    7815:	eb 63                	jmp    787a <init_pmm+0x88>
    7817:	81 7d f4 00 e0 09 00 	cmpl   $0x9e000,-0xc(%ebp)
    781e:	77 36                	ja     7856 <init_pmm+0x64>
    7820:	83 ec 0c             	sub    $0xc,%esp
    7823:	ff 75 f4             	pushl  -0xc(%ebp)
    7826:	e8 5e 00 00 00       	call   7889 <pmm_free_page>
    782b:	83 c4 10             	add    $0x10,%esp
    782e:	8b 83 90 34 00 00    	mov    0x3490(%ebx),%eax
    7834:	83 c0 01             	add    $0x1,%eax
    7837:	89 83 90 34 00 00    	mov    %eax,0x3490(%ebx)
    783d:	81 45 f4 00 10 00 00 	addl   $0x1000,-0xc(%ebp)
    7844:	81 7d f4 00 f0 09 00 	cmpl   $0x9f000,-0xc(%ebp)
    784b:	75 2d                	jne    787a <init_pmm+0x88>
    784d:	c7 45 f4 00 00 10 00 	movl   $0x100000,-0xc(%ebp)
    7854:	eb 24                	jmp    787a <init_pmm+0x88>
    7856:	83 ec 0c             	sub    $0xc,%esp
    7859:	ff 75 f4             	pushl  -0xc(%ebp)
    785c:	e8 28 00 00 00       	call   7889 <pmm_free_page>
    7861:	83 c4 10             	add    $0x10,%esp
    7864:	8b 83 90 34 00 00    	mov    0x3490(%ebx),%eax
    786a:	83 c0 01             	add    $0x1,%eax
    786d:	89 83 90 34 00 00    	mov    %eax,0x3490(%ebx)
    7873:	81 45 f4 00 10 00 00 	addl   $0x1000,-0xc(%ebp)
    787a:	81 7d f4 00 d0 ff 07 	cmpl   $0x7ffd000,-0xc(%ebp)
    7881:	76 94                	jbe    7817 <init_pmm+0x25>
    7883:	90                   	nop
    7884:	8b 5d fc             	mov    -0x4(%ebp),%ebx
    7887:	c9                   	leave  
    7888:	c3                   	ret    

00007889 <pmm_free_page>:
    7889:	55                   	push   %ebp
    788a:	89 e5                	mov    %esp,%ebp
    788c:	e8 57 00 00 00       	call   78e8 <__x86.get_pc_thunk.ax>
    7891:	05 df 10 00 00       	add    $0x10df,%eax
    7896:	8b 90 b4 34 40 00    	mov    0x4034b4(%eax),%edx
    789c:	8d 4a 01             	lea    0x1(%edx),%ecx
    789f:	89 88 b4 34 40 00    	mov    %ecx,0x4034b4(%eax)
    78a5:	8b 4d 08             	mov    0x8(%ebp),%ecx
    78a8:	89 8c 90 b0 34 00 00 	mov    %ecx,0x34b0(%eax,%edx,4)
    78af:	90                   	nop
    78b0:	5d                   	pop    %ebp
    78b1:	c3                   	ret    

000078b2 <pmm_alloc_page>:
    78b2:	55                   	push   %ebp
    78b3:	89 e5                	mov    %esp,%ebp
    78b5:	83 ec 10             	sub    $0x10,%esp
    78b8:	e8 2b 00 00 00       	call   78e8 <__x86.get_pc_thunk.ax>
    78bd:	05 b3 10 00 00       	add    $0x10b3,%eax
    78c2:	8b 90 b4 34 40 00    	mov    0x4034b4(%eax),%edx
    78c8:	83 ea 01             	sub    $0x1,%edx
    78cb:	89 90 b4 34 40 00    	mov    %edx,0x4034b4(%eax)
    78d1:	8b 90 b4 34 40 00    	mov    0x4034b4(%eax),%edx
    78d7:	8b 84 90 b0 34 00 00 	mov    0x34b0(%eax,%edx,4),%eax
    78de:	89 45 fc             	mov    %eax,-0x4(%ebp)
    78e1:	8b 45 fc             	mov    -0x4(%ebp),%eax
    78e4:	c9                   	leave  
    78e5:	c3                   	ret    
    78e6:	66 90                	xchg   %ax,%ax

Disassembly of section .text.__x86.get_pc_thunk.ax:

000078e8 <__x86.get_pc_thunk.ax>:
    78e8:	8b 04 24             	mov    (%esp),%eax
    78eb:	c3                   	ret    

Disassembly of section .text.__x86.get_pc_thunk.bx:

000078ec <__x86.get_pc_thunk.bx>:
    78ec:	8b 1c 24             	mov    (%esp),%ebx
    78ef:	c3                   	ret    
