00000000  8CC8              mov ax,cs
00000002  8ED0              mov ss,ax
00000004  BC007C            mov sp,0x7c00
00000007  8ED8              mov ds,ax
00000009  8EC0              mov es,ax
0000000B  BE7F7D            mov si,0x7d7f
0000000E  8A04              mov al,[si]
00000010  83C601            add si,byte +0x1
00000013  3C00              cmp al,0x0
00000015  7409              jz 0x20
00000017  B40E              mov ah,0xe
00000019  BB0F00            mov bx,0xf
0000001C  CD10              int 0x10
0000001E  EBEE              jmp short 0xe
00000020  BE997D            mov si,0x7d99
00000023  8A04              mov al,[si]
00000025  83C601            add si,byte +0x1
00000028  3C00              cmp al,0x0
0000002A  7409              jz 0x35
0000002C  B40E              mov ah,0xe
0000002E  BB0F00            mov bx,0xf
00000031  CD10              int 0x10
00000033  EBEE              jmp short 0x23
00000035  B80008            mov ax,0x800
00000038  8EC0              mov es,ax
0000003A  BB0000            mov bx,0x0
0000003D  B500              mov ch,0x0
0000003F  B600              mov dh,0x0
00000041  B102              mov cl,0x2
00000043  BE0000            mov si,0x0
00000046  B402              mov ah,0x2
00000048  B001              mov al,0x1
0000004A  BB0000            mov bx,0x0
0000004D  B200              mov dl,0x0
0000004F  CD13              int 0x13
00000051  7312              jnc 0x65
00000053  83C601            add si,byte +0x1
00000056  83FE05            cmp si,byte +0x5
00000059  0F830A01          jnc word 0x167
0000005D  B400              mov ah,0x0
0000005F  B200              mov dl,0x0
00000061  CD13              int 0x13
00000063  EBE1              jmp short 0x46
00000065  8CC0              mov ax,es
00000067  83C020            add ax,byte +0x20
0000006A  8EC0              mov es,ax
0000006C  80C101            add cl,0x1
0000006F  80F912            cmp cl,0x12
00000072  76CF              jna 0x43
00000074  B101              mov cl,0x1
00000076  80C601            add dh,0x1
00000079  80FE02            cmp dh,0x2
0000007C  72C5              jc 0x43
0000007E  B600              mov dh,0x0
00000080  80C501            add ch,0x1
00000083  80FD0A            cmp ch,0xa
00000086  72BB              jc 0x43
00000088  882EF00F          mov [0xff0],ch
0000008C  FC                cld
0000008D  B8C007            mov ax,0x7c0
00000090  8ED8              mov ds,ax
00000092  B80090            mov ax,0x9000
00000095  8EC0              mov es,ax
00000097  B90001            mov cx,0x100
0000009A  29F6              sub si,si
0000009C  29FF              sub di,di
0000009E  F3A5              rep movsw
000000A0  EAA5000090        jmp word 0x9000:0xa5
000000A5  8CC8              mov ax,cs
000000A7  8ED8              mov ds,ax
000000A9  8EC0              mov es,ax
000000AB  8ED0              mov ss,ax
000000AD  BC00FC            mov sp,0xfc00
000000B0  B402              mov ah,0x2
000000B2  BB0F00            mov bx,0xf
000000B5  BA160E            mov dx,0xe16
000000B8  CD10              int 0x10
000000BA  BEAC01            mov si,0x1ac
000000BD  8A04              mov al,[si]
000000BF  83C601            add si,byte +0x1
000000C2  3C00              cmp al,0x0
000000C4  7409              jz 0xcf
000000C6  B40E              mov ah,0xe
000000C8  BB0F00            mov bx,0xf
000000CB  CD10              int 0x10
000000CD  EBEE              jmp short 0xbd
000000CF  B003              mov al,0x3
000000D1  B400              mov ah,0x0
000000D3  CD10              int 0x10
000000D5  B0FF              mov al,0xff
000000D7  E621              out 0x21,al
000000D9  90                nop
000000DA  E6A1              out 0xa1,al
000000DC  FA                cli
000000DD  FA                cli
000000DE  B80008            mov ax,0x800
000000E1  8ED8              mov ds,ax
000000E3  B80000            mov ax,0x0
000000E6  8EC0              mov es,ax
000000E8  B90060            mov cx,0x6000
000000EB  29F6              sub si,si
000000ED  29FF              sub di,di
000000EF  F3A5              rep movsw
000000F1  8CC8              mov ax,cs
000000F3  8EC0              mov es,ax
000000F5  8ED8              mov ds,ax
000000F7  E83000            call word 0x12a
000000FA  B0D1              mov al,0xd1
000000FC  E664              out 0x64,al
000000FE  E82900            call word 0x12a
00000101  B0DF              mov al,0xdf
00000103  E660              out 0x60,al
00000105  E82200            call word 0x12a
00000108  FA                cli
00000109  0F01166101        lgdt [0x161]
0000010E  E492              in al,0x92
00000110  0C02              or al,0x2
00000112  E692              out 0x92,al
00000114  0F20C0            mov eax,cr0
00000117  6625FFFFFF7F      and eax,0x7fffffff
0000011D  0C01              or al,0x1
0000011F  0F22C0            mov cr0,eax
00000122  66EA000000000800  jmp dword 0x8:0x0
0000012A  E464              in al,0x64
0000012C  2402              and al,0x2
0000012E  75FA              jnz 0x12a
00000130  C3                ret
00000131  0000              add [bx+si],al
00000133  0000              add [bx+si],al
00000135  0000              add [bx+si],al
00000137  0000              add [bx+si],al
00000139  FF                db 0xff
0000013A  FF00              inc word [bx+si]
0000013C  0000              add [bx+si],al
0000013E  9ACF00FFFF        call word 0xffff:0xcf
00000143  0000              add [bx+si],al
00000145  0092CF00          add [bp+si+0xcf],dl
00000149  FF                db 0xff
0000014A  FF00              inc word [bx+si]
0000014C  800BF2            or byte [bp+di],0xf2
0000014F  0F0000            sldt [bx+si]
00000152  0000              add [bx+si],al
00000154  0000              add [bx+si],al
00000156  0000              add [bx+si],al
00000158  0000              add [bx+si],al
0000015A  0000              add [bx+si],al
0000015C  0000              add [bx+si],al
0000015E  0000              add [bx+si],al
00000160  002F              add [bx],ch
00000162  0031              add [bx+di],dh
00000164  0109              add [bx+di],cx
00000166  00BEBF7D          add [bp+0x7dbf],bh
0000016A  8A04              mov al,[si]
0000016C  83C601            add si,byte +0x1
0000016F  3C00              cmp al,0x0
00000171  7409              jz 0x17c
00000173  B40E              mov ah,0xe
00000175  BB0F00            mov bx,0xf
00000178  CD10              int 0x10
0000017A  EBEE              jmp short 0x16a
0000017C  F4                hlt
0000017D  EBFD              jmp short 0x17c
0000017F  0A0A              or cl,[bp+si]
00000181  57                push di
00000182  656C              gs insb
00000184  636F6D            arpl [bx+0x6d],bp
00000187  6520746F          and [gs:si+0x6f],dh
0000018B  204465            and [si+0x65],al
0000018E  657070            gs jo 0x201
00000191  696E6B4F53        imul bp,[bp+0x6b],word 0x534f
00000196  3A0A              cmp cl,[bp+si]
00000198  000A              add [bp+si],cl
0000019A  0A5265            or dl,[bp+si+0x65]
0000019D  61                popaw
0000019E  64205365          and [fs:bp+di+0x65],dl
000001A2  63746F            arpl [si+0x6f],si
000001A5  7273              jc 0x21a
000001A7  2E2E2E0A00        or al,[cs:bx+si]
000001AC  52                push dx
000001AD  6561              gs popaw
000001AF  6420436F          and [fs:bp+di+0x6f],al
000001B3  6D                insw
000001B4  706C              jo 0x222
000001B6  657465            gs jz 0x21e
000001B9  6C                insb
000001BA  7921              jns 0x1dd
000001BC  210A              and [bp+si],cx
000001BE  004C6F            add [si+0x6f],cl
000001C1  61                popaw
000001C2  64096572          or [fs:di+0x72],sp
000001C6  726F              jc 0x237
000001C8  720A              jc 0x1d4
000001CA  0000              add [bx+si],al
000001CC  0000              add [bx+si],al
000001CE  0000              add [bx+si],al
000001D0  0000              add [bx+si],al
000001D2  0000              add [bx+si],al
000001D4  0000              add [bx+si],al
000001D6  0000              add [bx+si],al
000001D8  0000              add [bx+si],al
000001DA  0000              add [bx+si],al
000001DC  0000              add [bx+si],al
000001DE  0000              add [bx+si],al
000001E0  0000              add [bx+si],al
000001E2  0000              add [bx+si],al
000001E4  0000              add [bx+si],al
000001E6  0000              add [bx+si],al
000001E8  0000              add [bx+si],al
000001EA  0000              add [bx+si],al
000001EC  0000              add [bx+si],al
000001EE  0000              add [bx+si],al
000001F0  0000              add [bx+si],al
000001F2  0000              add [bx+si],al
000001F4  0000              add [bx+si],al
000001F6  0000              add [bx+si],al
000001F8  0000              add [bx+si],al
000001FA  0000              add [bx+si],al
000001FC  0000              add [bx+si],al
000001FE  55                push bp
000001FF  AA                stosb
